
HD44780_PCF8574_Example.elf:     file format elf32-avr

Sections:
Idx Name          Size      VMA       LMA       File off  Algn
  0 .text         00000daa  00000000  00000000  00000094  2**1
                  CONTENTS, ALLOC, LOAD, READONLY, CODE
  1 .data         00000032  00800060  00000daa  00000e3e  2**0
                  CONTENTS, ALLOC, LOAD, DATA
  2 .bss          00000008  00800092  00800092  00000e70  2**0
                  ALLOC
  3 .comment      00000030  00000000  00000000  00000e70  2**0
                  CONTENTS, READONLY
  4 .note.gnu.avr.deviceinfo 0000003c  00000000  00000000  00000ea0  2**2
                  CONTENTS, READONLY
  5 .debug_aranges 000001a0  00000000  00000000  00000edc  2**0
                  CONTENTS, READONLY, DEBUGGING
  6 .debug_info   00002876  00000000  00000000  0000107c  2**0
                  CONTENTS, READONLY, DEBUGGING
  7 .debug_abbrev 00000dd8  00000000  00000000  000038f2  2**0
                  CONTENTS, READONLY, DEBUGGING
  8 .debug_line   00000d48  00000000  00000000  000046ca  2**0
                  CONTENTS, READONLY, DEBUGGING
  9 .debug_frame  00000540  00000000  00000000  00005414  2**2
                  CONTENTS, READONLY, DEBUGGING
 10 .debug_str    00000e63  00000000  00000000  00005954  2**0
                  CONTENTS, READONLY, DEBUGGING
 11 .debug_loc    00001505  00000000  00000000  000067b7  2**0
                  CONTENTS, READONLY, DEBUGGING
 12 .debug_ranges 000001b8  00000000  00000000  00007cbc  2**0
                  CONTENTS, READONLY, DEBUGGING

Disassembly of section .text:

00000000 <__vectors>:
   0:	5c c0       	rjmp	.+184    	; 0xba <__ctors_end>
   2:	80 c0       	rjmp	.+256    	; 0x104 <__bad_interrupt>
   4:	7f c0       	rjmp	.+254    	; 0x104 <__bad_interrupt>
   6:	7e c0       	rjmp	.+252    	; 0x104 <__bad_interrupt>
   8:	7d c0       	rjmp	.+250    	; 0x104 <__bad_interrupt>
   a:	7c c0       	rjmp	.+248    	; 0x104 <__bad_interrupt>
   c:	7b c0       	rjmp	.+246    	; 0x104 <__bad_interrupt>
   e:	7a c0       	rjmp	.+244    	; 0x104 <__bad_interrupt>
  10:	79 c0       	rjmp	.+242    	; 0x104 <__bad_interrupt>
  12:	15 c4       	rjmp	.+2090   	; 0x83e <__vector_9>
  14:	77 c0       	rjmp	.+238    	; 0x104 <__bad_interrupt>
  16:	76 c0       	rjmp	.+236    	; 0x104 <__bad_interrupt>
  18:	75 c0       	rjmp	.+234    	; 0x104 <__bad_interrupt>
  1a:	74 c0       	rjmp	.+232    	; 0x104 <__bad_interrupt>
  1c:	73 c0       	rjmp	.+230    	; 0x104 <__bad_interrupt>
  1e:	72 c0       	rjmp	.+228    	; 0x104 <__bad_interrupt>
  20:	71 c0       	rjmp	.+226    	; 0x104 <__bad_interrupt>
  22:	e6 c3       	rjmp	.+1996   	; 0x7f0 <__vector_17>
  24:	6f c0       	rjmp	.+222    	; 0x104 <__bad_interrupt>
  26:	48 c1       	rjmp	.+656    	; 0x2b8 <_ZN15HD44780_PCF857413NextOperationE10TWI_Status+0x30>
  28:	88 c1       	rjmp	.+784    	; 0x33a <_ZN15HD44780_PCF857413NextOperationE10TWI_Status+0xb2>
  2a:	87 c1       	rjmp	.+782    	; 0x33a <_ZN15HD44780_PCF857413NextOperationE10TWI_Status+0xb2>
  2c:	86 c1       	rjmp	.+780    	; 0x33a <_ZN15HD44780_PCF857413NextOperationE10TWI_Status+0xb2>
  2e:	85 c1       	rjmp	.+778    	; 0x33a <_ZN15HD44780_PCF857413NextOperationE10TWI_Status+0xb2>
  30:	84 c1       	rjmp	.+776    	; 0x33a <_ZN15HD44780_PCF857413NextOperationE10TWI_Status+0xb2>
  32:	83 c1       	rjmp	.+774    	; 0x33a <_ZN15HD44780_PCF857413NextOperationE10TWI_Status+0xb2>
  34:	82 c1       	rjmp	.+772    	; 0x33a <_ZN15HD44780_PCF857413NextOperationE10TWI_Status+0xb2>
  36:	45 c1       	rjmp	.+650    	; 0x2c2 <_ZN15HD44780_PCF857413NextOperationE10TWI_Status+0x3a>
  38:	80 c1       	rjmp	.+768    	; 0x33a <_ZN15HD44780_PCF857413NextOperationE10TWI_Status+0xb2>
  3a:	7f c1       	rjmp	.+766    	; 0x33a <_ZN15HD44780_PCF857413NextOperationE10TWI_Status+0xb2>
  3c:	7e c1       	rjmp	.+764    	; 0x33a <_ZN15HD44780_PCF857413NextOperationE10TWI_Status+0xb2>
  3e:	7d c1       	rjmp	.+762    	; 0x33a <_ZN15HD44780_PCF857413NextOperationE10TWI_Status+0xb2>
  40:	7c c1       	rjmp	.+760    	; 0x33a <_ZN15HD44780_PCF857413NextOperationE10TWI_Status+0xb2>
  42:	7b c1       	rjmp	.+758    	; 0x33a <_ZN15HD44780_PCF857413NextOperationE10TWI_Status+0xb2>
  44:	7a c1       	rjmp	.+756    	; 0x33a <_ZN15HD44780_PCF857413NextOperationE10TWI_Status+0xb2>
  46:	79 c1       	rjmp	.+754    	; 0x33a <_ZN15HD44780_PCF857413NextOperationE10TWI_Status+0xb2>
  48:	78 c1       	rjmp	.+752    	; 0x33a <_ZN15HD44780_PCF857413NextOperationE10TWI_Status+0xb2>
  4a:	77 c1       	rjmp	.+750    	; 0x33a <_ZN15HD44780_PCF857413NextOperationE10TWI_Status+0xb2>
  4c:	76 c1       	rjmp	.+748    	; 0x33a <_ZN15HD44780_PCF857413NextOperationE10TWI_Status+0xb2>
  4e:	75 c1       	rjmp	.+746    	; 0x33a <_ZN15HD44780_PCF857413NextOperationE10TWI_Status+0xb2>
  50:	74 c1       	rjmp	.+744    	; 0x33a <_ZN15HD44780_PCF857413NextOperationE10TWI_Status+0xb2>
  52:	73 c1       	rjmp	.+742    	; 0x33a <_ZN15HD44780_PCF857413NextOperationE10TWI_Status+0xb2>
  54:	72 c1       	rjmp	.+740    	; 0x33a <_ZN15HD44780_PCF857413NextOperationE10TWI_Status+0xb2>
  56:	3a c1       	rjmp	.+628    	; 0x2cc <_ZN15HD44780_PCF857413NextOperationE10TWI_Status+0x44>
  58:	70 c1       	rjmp	.+736    	; 0x33a <_ZN15HD44780_PCF857413NextOperationE10TWI_Status+0xb2>
  5a:	6f c1       	rjmp	.+734    	; 0x33a <_ZN15HD44780_PCF857413NextOperationE10TWI_Status+0xb2>
  5c:	6e c1       	rjmp	.+732    	; 0x33a <_ZN15HD44780_PCF857413NextOperationE10TWI_Status+0xb2>
  5e:	6d c1       	rjmp	.+730    	; 0x33a <_ZN15HD44780_PCF857413NextOperationE10TWI_Status+0xb2>
  60:	6c c1       	rjmp	.+728    	; 0x33a <_ZN15HD44780_PCF857413NextOperationE10TWI_Status+0xb2>
  62:	6b c1       	rjmp	.+726    	; 0x33a <_ZN15HD44780_PCF857413NextOperationE10TWI_Status+0xb2>
  64:	6a c1       	rjmp	.+724    	; 0x33a <_ZN15HD44780_PCF857413NextOperationE10TWI_Status+0xb2>
  66:	28 c1       	rjmp	.+592    	; 0x2b8 <_ZN15HD44780_PCF857413NextOperationE10TWI_Status+0x30>
  68:	68 c1       	rjmp	.+720    	; 0x33a <_ZN15HD44780_PCF857413NextOperationE10TWI_Status+0xb2>
  6a:	67 c1       	rjmp	.+718    	; 0x33a <_ZN15HD44780_PCF857413NextOperationE10TWI_Status+0xb2>
  6c:	66 c1       	rjmp	.+716    	; 0x33a <_ZN15HD44780_PCF857413NextOperationE10TWI_Status+0xb2>
  6e:	65 c1       	rjmp	.+714    	; 0x33a <_ZN15HD44780_PCF857413NextOperationE10TWI_Status+0xb2>
  70:	64 c1       	rjmp	.+712    	; 0x33a <_ZN15HD44780_PCF857413NextOperationE10TWI_Status+0xb2>
  72:	63 c1       	rjmp	.+710    	; 0x33a <_ZN15HD44780_PCF857413NextOperationE10TWI_Status+0xb2>
  74:	62 c1       	rjmp	.+708    	; 0x33a <_ZN15HD44780_PCF857413NextOperationE10TWI_Status+0xb2>
  76:	2a c1       	rjmp	.+596    	; 0x2cc <_ZN15HD44780_PCF857413NextOperationE10TWI_Status+0x44>
  78:	60 c1       	rjmp	.+704    	; 0x33a <_ZN15HD44780_PCF857413NextOperationE10TWI_Status+0xb2>
  7a:	5f c1       	rjmp	.+702    	; 0x33a <_ZN15HD44780_PCF857413NextOperationE10TWI_Status+0xb2>
  7c:	5e c1       	rjmp	.+700    	; 0x33a <_ZN15HD44780_PCF857413NextOperationE10TWI_Status+0xb2>
  7e:	5d c1       	rjmp	.+698    	; 0x33a <_ZN15HD44780_PCF857413NextOperationE10TWI_Status+0xb2>
  80:	5c c1       	rjmp	.+696    	; 0x33a <_ZN15HD44780_PCF857413NextOperationE10TWI_Status+0xb2>
  82:	5b c1       	rjmp	.+694    	; 0x33a <_ZN15HD44780_PCF857413NextOperationE10TWI_Status+0xb2>
  84:	5a c1       	rjmp	.+692    	; 0x33a <_ZN15HD44780_PCF857413NextOperationE10TWI_Status+0xb2>
  86:	18 c1       	rjmp	.+560    	; 0x2b8 <_ZN15HD44780_PCF857413NextOperationE10TWI_Status+0x30>
  88:	58 c1       	rjmp	.+688    	; 0x33a <_ZN15HD44780_PCF857413NextOperationE10TWI_Status+0xb2>
  8a:	57 c1       	rjmp	.+686    	; 0x33a <_ZN15HD44780_PCF857413NextOperationE10TWI_Status+0xb2>
  8c:	56 c1       	rjmp	.+684    	; 0x33a <_ZN15HD44780_PCF857413NextOperationE10TWI_Status+0xb2>
  8e:	55 c1       	rjmp	.+682    	; 0x33a <_ZN15HD44780_PCF857413NextOperationE10TWI_Status+0xb2>
  90:	54 c1       	rjmp	.+680    	; 0x33a <_ZN15HD44780_PCF857413NextOperationE10TWI_Status+0xb2>
  92:	53 c1       	rjmp	.+678    	; 0x33a <_ZN15HD44780_PCF857413NextOperationE10TWI_Status+0xb2>
  94:	52 c1       	rjmp	.+676    	; 0x33a <_ZN15HD44780_PCF857413NextOperationE10TWI_Status+0xb2>
  96:	07 c1       	rjmp	.+526    	; 0x2a6 <_ZN15HD44780_PCF857413NextOperationE10TWI_Status+0x1e>
  98:	50 c1       	rjmp	.+672    	; 0x33a <_ZN15HD44780_PCF857413NextOperationE10TWI_Status+0xb2>
  9a:	4f c1       	rjmp	.+670    	; 0x33a <_ZN15HD44780_PCF857413NextOperationE10TWI_Status+0xb2>
  9c:	4e c1       	rjmp	.+668    	; 0x33a <_ZN15HD44780_PCF857413NextOperationE10TWI_Status+0xb2>
  9e:	4d c1       	rjmp	.+666    	; 0x33a <_ZN15HD44780_PCF857413NextOperationE10TWI_Status+0xb2>
  a0:	4c c1       	rjmp	.+664    	; 0x33a <_ZN15HD44780_PCF857413NextOperationE10TWI_Status+0xb2>
  a2:	4b c1       	rjmp	.+662    	; 0x33a <_ZN15HD44780_PCF857413NextOperationE10TWI_Status+0xb2>
  a4:	4a c1       	rjmp	.+660    	; 0x33a <_ZN15HD44780_PCF857413NextOperationE10TWI_Status+0xb2>
  a6:	49 c1       	rjmp	.+658    	; 0x33a <_ZN15HD44780_PCF857413NextOperationE10TWI_Status+0xb2>
  a8:	48 c1       	rjmp	.+656    	; 0x33a <_ZN15HD44780_PCF857413NextOperationE10TWI_Status+0xb2>
  aa:	47 c1       	rjmp	.+654    	; 0x33a <_ZN15HD44780_PCF857413NextOperationE10TWI_Status+0xb2>
  ac:	46 c1       	rjmp	.+652    	; 0x33a <_ZN15HD44780_PCF857413NextOperationE10TWI_Status+0xb2>
  ae:	45 c1       	rjmp	.+650    	; 0x33a <_ZN15HD44780_PCF857413NextOperationE10TWI_Status+0xb2>
  b0:	44 c1       	rjmp	.+648    	; 0x33a <_ZN15HD44780_PCF857413NextOperationE10TWI_Status+0xb2>
  b2:	43 c1       	rjmp	.+646    	; 0x33a <_ZN15HD44780_PCF857413NextOperationE10TWI_Status+0xb2>
  b4:	42 c1       	rjmp	.+644    	; 0x33a <_ZN15HD44780_PCF857413NextOperationE10TWI_Status+0xb2>
  b6:	00 c1       	rjmp	.+512    	; 0x2b8 <_ZN15HD44780_PCF857413NextOperationE10TWI_Status+0x30>

000000b8 <__ctors_start>:
  b8:	83 04       	cpc	r8, r3

000000ba <__ctors_end>:
  ba:	11 24       	eor	r1, r1
  bc:	1f be       	out	0x3f, r1	; 63
  be:	cf e5       	ldi	r28, 0x5F	; 95
  c0:	d4 e0       	ldi	r29, 0x04	; 4
  c2:	de bf       	out	0x3e, r29	; 62
  c4:	cd bf       	out	0x3d, r28	; 61

000000c6 <__do_copy_data>:
  c6:	10 e0       	ldi	r17, 0x00	; 0
  c8:	a0 e6       	ldi	r26, 0x60	; 96
  ca:	b0 e0       	ldi	r27, 0x00	; 0
  cc:	ea ea       	ldi	r30, 0xAA	; 170
  ce:	fd e0       	ldi	r31, 0x0D	; 13
  d0:	02 c0       	rjmp	.+4      	; 0xd6 <__do_copy_data+0x10>
  d2:	05 90       	lpm	r0, Z+
  d4:	0d 92       	st	X+, r0
  d6:	a2 39       	cpi	r26, 0x92	; 146
  d8:	b1 07       	cpc	r27, r17
  da:	d9 f7       	brne	.-10     	; 0xd2 <__do_copy_data+0xc>

000000dc <__do_clear_bss>:
  dc:	20 e0       	ldi	r18, 0x00	; 0
  de:	a2 e9       	ldi	r26, 0x92	; 146
  e0:	b0 e0       	ldi	r27, 0x00	; 0
  e2:	01 c0       	rjmp	.+2      	; 0xe6 <.do_clear_bss_start>

000000e4 <.do_clear_bss_loop>:
  e4:	1d 92       	st	X+, r1

000000e6 <.do_clear_bss_start>:
  e6:	aa 39       	cpi	r26, 0x9A	; 154
  e8:	b2 07       	cpc	r27, r18
  ea:	e1 f7       	brne	.-8      	; 0xe4 <.do_clear_bss_loop>

000000ec <__do_global_ctors>:
  ec:	10 e0       	ldi	r17, 0x00	; 0
  ee:	cd e5       	ldi	r28, 0x5D	; 93
  f0:	d0 e0       	ldi	r29, 0x00	; 0
  f2:	03 c0       	rjmp	.+6      	; 0xfa <__do_global_ctors+0xe>
  f4:	21 97       	sbiw	r28, 0x01	; 1
  f6:	fe 01       	movw	r30, r28
  f8:	15 d5       	rcall	.+2602   	; 0xb24 <__tablejump2__>
  fa:	cc 35       	cpi	r28, 0x5C	; 92
  fc:	d1 07       	cpc	r29, r17
  fe:	d1 f7       	brne	.-12     	; 0xf4 <__do_global_ctors+0x8>
 100:	c5 d3       	rcall	.+1930   	; 0x88c <main>
 102:	51 c6       	rjmp	.+3234   	; 0xda6 <_exit>

00000104 <__bad_interrupt>:
 104:	7d cf       	rjmp	.-262    	; 0x0 <__vectors>

00000106 <_ZN15HD44780_PCF857414ClockFrequencyEv>:
	this->delay[this->writePointer] = 50;
	
	UpdateWritePointer();
	
	this->transactionStatus = TWI_InProcess;
}
 106:	fc 01       	movw	r30, r24
 108:	65 81       	ldd	r22, Z+5	; 0x05
 10a:	76 81       	ldd	r23, Z+6	; 0x06
 10c:	87 81       	ldd	r24, Z+7	; 0x07
 10e:	90 85       	ldd	r25, Z+8	; 0x08
 110:	08 95       	ret

00000112 <_ZN15HD44780_PCF857420GetTransactionStatusEv>:
 112:	fc 01       	movw	r30, r24
 114:	82 85       	ldd	r24, Z+10	; 0x0a
 116:	81 30       	cpi	r24, 0x01	; 1
 118:	09 f0       	breq	.+2      	; 0x11c <_ZN15HD44780_PCF857420GetTransactionStatusEv+0xa>
 11a:	12 86       	std	Z+10, r1	; 0x0a
 11c:	08 95       	ret

0000011e <_ZN15HD44780_PCF8574nwEj>:
 11e:	cf 93       	push	r28
 120:	df 93       	push	r29
 122:	ec 01       	movw	r28, r24
 124:	ce 01       	movw	r24, r28
 126:	04 d5       	rcall	.+2568   	; 0xb30 <malloc>
 128:	00 97       	sbiw	r24, 0x00	; 0
 12a:	e1 f3       	breq	.-8      	; 0x124 <_ZN15HD44780_PCF8574nwEj+0x6>
 12c:	df 91       	pop	r29
 12e:	cf 91       	pop	r28
 130:	08 95       	ret

00000132 <_ZN15HD44780_PCF857416ClearDataCounterEv>:
 132:	fc 01       	movw	r30, r24
 134:	15 ae       	std	Z+61, r1	; 0x3d
 136:	08 95       	ret

00000138 <_ZN15HD44780_PCF857413PrepareBufferEh>:
 138:	ff 92       	push	r15
 13a:	0f 93       	push	r16
 13c:	1f 93       	push	r17
 13e:	cf 93       	push	r28
 140:	df 93       	push	r29
 142:	8c 01       	movw	r16, r24
 144:	f6 2e       	mov	r15, r22
 146:	fc 01       	movw	r30, r24
 148:	e0 5c       	subi	r30, 0xC0	; 192
 14a:	ff 4f       	sbci	r31, 0xFF	; 255
 14c:	c0 81       	ld	r28, Z
 14e:	d0 e0       	ldi	r29, 0x00	; 0
 150:	fc 01       	movw	r30, r24
 152:	ec 0f       	add	r30, r28
 154:	fd 1f       	adc	r31, r29
 156:	67 8f       	std	Z+31, r22	; 0x1f
 158:	fe 01       	movw	r30, r28
 15a:	ee 0f       	add	r30, r30
 15c:	ff 1f       	adc	r31, r31
 15e:	e8 0f       	add	r30, r24
 160:	f9 1f       	adc	r31, r25
 162:	14 86       	std	Z+12, r1	; 0x0c
 164:	13 86       	std	Z+11, r1	; 0x0b
 166:	8f 2d       	mov	r24, r15
 168:	90 e0       	ldi	r25, 0x00	; 0
 16a:	e2 d4       	rcall	.+2500   	; 0xb30 <malloc>
 16c:	fe 01       	movw	r30, r28
 16e:	ee 0f       	add	r30, r30
 170:	ff 1f       	adc	r31, r31
 172:	e0 0f       	add	r30, r16
 174:	f1 1f       	adc	r31, r17
 176:	94 87       	std	Z+12, r25	; 0x0c
 178:	83 87       	std	Z+11, r24	; 0x0b
 17a:	89 2b       	or	r24, r25
 17c:	a1 f3       	breq	.-24     	; 0x166 <_ZN15HD44780_PCF857413PrepareBufferEh+0x2e>
 17e:	df 91       	pop	r29
 180:	cf 91       	pop	r28
 182:	1f 91       	pop	r17
 184:	0f 91       	pop	r16
 186:	ff 90       	pop	r15
 188:	08 95       	ret

0000018a <_ZN15HD44780_PCF85748FormByteEh16HD44780_DataType>:
 18a:	cf 93       	push	r28
 18c:	df 93       	push	r29
 18e:	00 d0       	rcall	.+0      	; 0x190 <_ZN15HD44780_PCF85748FormByteEh16HD44780_DataType+0x6>
 190:	00 d0       	rcall	.+0      	; 0x192 <_ZN15HD44780_PCF85748FormByteEh16HD44780_DataType+0x8>
 192:	cd b7       	in	r28, 0x3d	; 61
 194:	de b7       	in	r29, 0x3e	; 62
 196:	19 82       	std	Y+1, r1	; 0x01
 198:	1a 82       	std	Y+2, r1	; 0x02
 19a:	1b 82       	std	Y+3, r1	; 0x03
 19c:	1c 82       	std	Y+4, r1	; 0x04
 19e:	21 e0       	ldi	r18, 0x01	; 1
 1a0:	fe 01       	movw	r30, r28
 1a2:	31 96       	adiw	r30, 0x01	; 1
 1a4:	25 30       	cpi	r18, 0x05	; 5
 1a6:	48 f5       	brcc	.+82     	; 0x1fa <_ZN15HD44780_PCF85748FormByteEh16HD44780_DataType+0x70>
 1a8:	86 2f       	mov	r24, r22
 1aa:	88 1f       	adc	r24, r24
 1ac:	88 27       	eor	r24, r24
 1ae:	88 1f       	adc	r24, r24
 1b0:	90 e0       	ldi	r25, 0x00	; 0
 1b2:	96 95       	lsr	r25
 1b4:	98 2f       	mov	r25, r24
 1b6:	88 27       	eor	r24, r24
 1b8:	97 95       	ror	r25
 1ba:	87 95       	ror	r24
 1bc:	96 2f       	mov	r25, r22
 1be:	90 77       	andi	r25, 0x70	; 112
 1c0:	89 2b       	or	r24, r25
 1c2:	90 81       	ld	r25, Z
 1c4:	89 2b       	or	r24, r25
 1c6:	88 60       	ori	r24, 0x08	; 8
 1c8:	8d 7f       	andi	r24, 0xFD	; 253
 1ca:	80 83       	st	Z, r24
 1cc:	41 30       	cpi	r20, 0x01	; 1
 1ce:	19 f4       	brne	.+6      	; 0x1d6 <_ZN15HD44780_PCF85748FormByteEh16HD44780_DataType+0x4c>
 1d0:	8e 7f       	andi	r24, 0xFE	; 254
 1d2:	80 83       	st	Z, r24
 1d4:	04 c0       	rjmp	.+8      	; 0x1de <_ZN15HD44780_PCF85748FormByteEh16HD44780_DataType+0x54>
 1d6:	41 11       	cpse	r20, r1
 1d8:	02 c0       	rjmp	.+4      	; 0x1de <_ZN15HD44780_PCF85748FormByteEh16HD44780_DataType+0x54>
 1da:	81 60       	ori	r24, 0x01	; 1
 1dc:	80 83       	st	Z, r24
 1de:	20 fd       	sbrc	r18, 0
 1e0:	06 c0       	rjmp	.+12     	; 0x1ee <_ZN15HD44780_PCF85748FormByteEh16HD44780_DataType+0x64>
 1e2:	80 81       	ld	r24, Z
 1e4:	8b 7f       	andi	r24, 0xFB	; 251
 1e6:	80 83       	st	Z, r24
 1e8:	62 95       	swap	r22
 1ea:	60 7f       	andi	r22, 0xF0	; 240
 1ec:	03 c0       	rjmp	.+6      	; 0x1f4 <_ZN15HD44780_PCF85748FormByteEh16HD44780_DataType+0x6a>
 1ee:	80 81       	ld	r24, Z
 1f0:	84 60       	ori	r24, 0x04	; 4
 1f2:	80 83       	st	Z, r24
 1f4:	31 96       	adiw	r30, 0x01	; 1
 1f6:	2f 5f       	subi	r18, 0xFF	; 255
 1f8:	d5 cf       	rjmp	.-86     	; 0x1a4 <_ZN15HD44780_PCF85748FormByteEh16HD44780_DataType+0x1a>
 1fa:	69 81       	ldd	r22, Y+1	; 0x01
 1fc:	7a 81       	ldd	r23, Y+2	; 0x02
 1fe:	8b 81       	ldd	r24, Y+3	; 0x03
 200:	9c 81       	ldd	r25, Y+4	; 0x04
 202:	0f 90       	pop	r0
 204:	0f 90       	pop	r0
 206:	0f 90       	pop	r0
 208:	0f 90       	pop	r0
 20a:	df 91       	pop	r29
 20c:	cf 91       	pop	r28
 20e:	08 95       	ret

00000210 <_ZN15HD44780_PCF857418UpdateWritePointerEv>:
 210:	fc 01       	movw	r30, r24
 212:	dc 01       	movw	r26, r24
 214:	a0 5c       	subi	r26, 0xC0	; 192
 216:	bf 4f       	sbci	r27, 0xFF	; 255
 218:	2c 91       	ld	r18, X
 21a:	2f 5f       	subi	r18, 0xFF	; 255
 21c:	9d ec       	ldi	r25, 0xCD	; 205
 21e:	29 9f       	mul	r18, r25
 220:	91 2d       	mov	r25, r1
 222:	11 24       	eor	r1, r1
 224:	96 95       	lsr	r25
 226:	96 95       	lsr	r25
 228:	96 95       	lsr	r25
 22a:	99 0f       	add	r25, r25
 22c:	89 2f       	mov	r24, r25
 22e:	88 0f       	add	r24, r24
 230:	88 0f       	add	r24, r24
 232:	98 0f       	add	r25, r24
 234:	29 1b       	sub	r18, r25
 236:	2c 93       	st	X, r18
 238:	86 ad       	ldd	r24, Z+62	; 0x3e
 23a:	8f 5f       	subi	r24, 0xFF	; 255
 23c:	86 af       	std	Z+62, r24	; 0x3e
 23e:	08 95       	ret

00000240 <_ZN15HD44780_PCF857417UpdateReadPointerEv>:
 240:	cf 93       	push	r28
 242:	df 93       	push	r29
 244:	ec 01       	movw	r28, r24
 246:	ef ad       	ldd	r30, Y+63	; 0x3f
 248:	f0 e0       	ldi	r31, 0x00	; 0
 24a:	ee 0f       	add	r30, r30
 24c:	ff 1f       	adc	r31, r31
 24e:	e8 0f       	add	r30, r24
 250:	f9 1f       	adc	r31, r25
 252:	83 85       	ldd	r24, Z+11	; 0x0b
 254:	94 85       	ldd	r25, Z+12	; 0x0c
 256:	04 d5       	rcall	.+2568   	; 0xc60 <free>
 258:	9f ad       	ldd	r25, Y+63	; 0x3f
 25a:	9f 5f       	subi	r25, 0xFF	; 255
 25c:	8d ec       	ldi	r24, 0xCD	; 205
 25e:	98 9f       	mul	r25, r24
 260:	81 2d       	mov	r24, r1
 262:	11 24       	eor	r1, r1
 264:	86 95       	lsr	r24
 266:	86 95       	lsr	r24
 268:	86 95       	lsr	r24
 26a:	88 0f       	add	r24, r24
 26c:	28 2f       	mov	r18, r24
 26e:	22 0f       	add	r18, r18
 270:	22 0f       	add	r18, r18
 272:	82 0f       	add	r24, r18
 274:	98 1b       	sub	r25, r24
 276:	9f af       	std	Y+63, r25	; 0x3f
 278:	ce 01       	movw	r24, r28
 27a:	5b df       	rcall	.-330    	; 0x132 <_ZN15HD44780_PCF857416ClearDataCounterEv>
 27c:	8e ad       	ldd	r24, Y+62	; 0x3e
 27e:	81 50       	subi	r24, 0x01	; 1
 280:	8e af       	std	Y+62, r24	; 0x3e
 282:	df 91       	pop	r29
 284:	cf 91       	pop	r28
 286:	08 95       	ret

00000288 <_ZN15HD44780_PCF857413NextOperationE10TWI_Status>:
 288:	cf 93       	push	r28
 28a:	df 93       	push	r29
 28c:	fc 01       	movw	r30, r24
 28e:	61 87       	std	Z+9, r22	; 0x09
 290:	46 2f       	mov	r20, r22
 292:	50 e0       	ldi	r21, 0x00	; 0
 294:	49 34       	cpi	r20, 0x49	; 73
 296:	51 05       	cpc	r21, r1
 298:	08 f0       	brcs	.+2      	; 0x29c <_ZN15HD44780_PCF857413NextOperationE10TWI_Status+0x14>
 29a:	4f c0       	rjmp	.+158    	; 0x33a <_ZN15HD44780_PCF857413NextOperationE10TWI_Status+0xb2>
 29c:	ec 01       	movw	r28, r24
 29e:	fa 01       	movw	r30, r20
 2a0:	ed 5e       	subi	r30, 0xED	; 237
 2a2:	ff 4f       	sbci	r31, 0xFF	; 255
 2a4:	09 94       	ijmp
 2a6:	8a 81       	ldd	r24, Y+2	; 0x02
 2a8:	9b 81       	ldd	r25, Y+3	; 0x03
 2aa:	d1 d3       	rcall	.+1954   	; 0xa4e <_ZN3TWI4StopEv>
 2ac:	ce 01       	movw	r24, r28
 2ae:	41 df       	rcall	.-382    	; 0x132 <_ZN15HD44780_PCF857416ClearDataCounterEv>
 2b0:	8a 81       	ldd	r24, Y+2	; 0x02
 2b2:	9b 81       	ldd	r25, Y+3	; 0x03
 2b4:	8e d3       	rcall	.+1820   	; 0x9d2 <_ZN3TWI5StartEv>
 2b6:	41 c0       	rjmp	.+130    	; 0x33a <_ZN15HD44780_PCF857413NextOperationE10TWI_Status+0xb2>
 2b8:	3c df       	rcall	.-392    	; 0x132 <_ZN15HD44780_PCF857416ClearDataCounterEv>
 2ba:	8a 81       	ldd	r24, Y+2	; 0x02
 2bc:	9b 81       	ldd	r25, Y+3	; 0x03
 2be:	e5 d3       	rcall	.+1994   	; 0xa8a <_ZN3TWI16DisableInterruptEv>
 2c0:	3c c0       	rjmp	.+120    	; 0x33a <_ZN15HD44780_PCF857413NextOperationE10TWI_Status+0xb2>
 2c2:	6c 81       	ldd	r22, Y+4	; 0x04
 2c4:	8a 81       	ldd	r24, Y+2	; 0x02
 2c6:	9b 81       	ldd	r25, Y+3	; 0x03
 2c8:	be d3       	rcall	.+1916   	; 0xa46 <_ZN3TWI11WriteToTWDREh>
 2ca:	37 c0       	rjmp	.+110    	; 0x33a <_ZN15HD44780_PCF857413NextOperationE10TWI_Status+0xb2>
 2cc:	8e ad       	ldd	r24, Y+62	; 0x3e
 2ce:	88 23       	and	r24, r24
 2d0:	79 f1       	breq	.+94     	; 0x330 <_ZN15HD44780_PCF857413NextOperationE10TWI_Status+0xa8>
 2d2:	3d ad       	ldd	r19, Y+61	; 0x3d
 2d4:	8f ad       	ldd	r24, Y+63	; 0x3f
 2d6:	90 e0       	ldi	r25, 0x00	; 0
 2d8:	fe 01       	movw	r30, r28
 2da:	e8 0f       	add	r30, r24
 2dc:	f9 1f       	adc	r31, r25
 2de:	27 8d       	ldd	r18, Z+31	; 0x1f
 2e0:	32 17       	cp	r19, r18
 2e2:	18 f5       	brcc	.+70     	; 0x32a <_ZN15HD44780_PCF857413NextOperationE10TWI_Status+0xa2>
 2e4:	88 0f       	add	r24, r24
 2e6:	99 1f       	adc	r25, r25
 2e8:	fe 01       	movw	r30, r28
 2ea:	e8 0f       	add	r30, r24
 2ec:	f9 1f       	adc	r31, r25
 2ee:	81 a5       	ldd	r24, Z+41	; 0x29
 2f0:	92 a5       	ldd	r25, Z+42	; 0x2a
 2f2:	00 97       	sbiw	r24, 0x00	; 0
 2f4:	31 f0       	breq	.+12     	; 0x302 <_ZN15HD44780_PCF857413NextOperationE10TWI_Status+0x7a>
 2f6:	f5 e8       	ldi	r31, 0x85	; 133
 2f8:	fa 95       	dec	r31
 2fa:	f1 f7       	brne	.-4      	; 0x2f8 <_ZN15HD44780_PCF857413NextOperationE10TWI_Status+0x70>
 2fc:	00 00       	nop
 2fe:	c2 97       	sbiw	r24, 0x32	; 50
 300:	f8 cf       	rjmp	.-16     	; 0x2f2 <_ZN15HD44780_PCF857413NextOperationE10TWI_Status+0x6a>
 302:	ef ad       	ldd	r30, Y+63	; 0x3f
 304:	f0 e0       	ldi	r31, 0x00	; 0
 306:	ee 0f       	add	r30, r30
 308:	ff 1f       	adc	r31, r31
 30a:	ec 0f       	add	r30, r28
 30c:	fd 1f       	adc	r31, r29
 30e:	03 84       	ldd	r0, Z+11	; 0x0b
 310:	f4 85       	ldd	r31, Z+12	; 0x0c
 312:	e0 2d       	mov	r30, r0
 314:	8d ad       	ldd	r24, Y+61	; 0x3d
 316:	e8 0f       	add	r30, r24
 318:	f1 1d       	adc	r31, r1
 31a:	60 81       	ld	r22, Z
 31c:	8a 81       	ldd	r24, Y+2	; 0x02
 31e:	9b 81       	ldd	r25, Y+3	; 0x03
 320:	92 d3       	rcall	.+1828   	; 0xa46 <_ZN3TWI11WriteToTWDREh>
 322:	8d ad       	ldd	r24, Y+61	; 0x3d
 324:	8f 5f       	subi	r24, 0xFF	; 255
 326:	8d af       	std	Y+61, r24	; 0x3d
 328:	08 c0       	rjmp	.+16     	; 0x33a <_ZN15HD44780_PCF857413NextOperationE10TWI_Status+0xb2>
 32a:	ce 01       	movw	r24, r28
 32c:	89 df       	rcall	.-238    	; 0x240 <_ZN15HD44780_PCF857417UpdateReadPointerEv>
 32e:	05 c0       	rjmp	.+10     	; 0x33a <_ZN15HD44780_PCF857413NextOperationE10TWI_Status+0xb2>
 330:	8a 81       	ldd	r24, Y+2	; 0x02
 332:	9b 81       	ldd	r25, Y+3	; 0x03
 334:	8c d3       	rcall	.+1816   	; 0xa4e <_ZN3TWI4StopEv>
 336:	82 e0       	ldi	r24, 0x02	; 2
 338:	8a 87       	std	Y+10, r24	; 0x0a
 33a:	df 91       	pop	r29
 33c:	cf 91       	pop	r28
 33e:	08 95       	ret

00000340 <_ZN15HD44780_PCF857410AddCommandEhj>:
 340:	cf 92       	push	r12
 342:	df 92       	push	r13
 344:	ef 92       	push	r14
 346:	ff 92       	push	r15
 348:	0f 93       	push	r16
 34a:	1f 93       	push	r17
 34c:	cf 93       	push	r28
 34e:	df 93       	push	r29
 350:	00 d0       	rcall	.+0      	; 0x352 <_ZN15HD44780_PCF857410AddCommandEhj+0x12>
 352:	00 d0       	rcall	.+0      	; 0x354 <_ZN15HD44780_PCF857410AddCommandEhj+0x14>
 354:	cd b7       	in	r28, 0x3d	; 61
 356:	de b7       	in	r29, 0x3e	; 62
 358:	8c 01       	movw	r16, r24
 35a:	d6 2e       	mov	r13, r22
 35c:	7a 01       	movw	r14, r20
 35e:	d8 01       	movw	r26, r16
 360:	de 96       	adiw	r26, 0x3e	; 62
 362:	8c 91       	ld	r24, X
 364:	8a 30       	cpi	r24, 0x0A	; 10
 366:	d9 f3       	breq	.-10     	; 0x35e <_ZN15HD44780_PCF857410AddCommandEhj+0x1e>
 368:	64 e0       	ldi	r22, 0x04	; 4
 36a:	c8 01       	movw	r24, r16
 36c:	e5 de       	rcall	.-566    	; 0x138 <_ZN15HD44780_PCF857413PrepareBufferEh>
 36e:	41 e0       	ldi	r20, 0x01	; 1
 370:	6d 2d       	mov	r22, r13
 372:	c8 01       	movw	r24, r16
 374:	0a df       	rcall	.-492    	; 0x18a <_ZN15HD44780_PCF85748FormByteEh16HD44780_DataType>
 376:	69 83       	std	Y+1, r22	; 0x01
 378:	7a 83       	std	Y+2, r23	; 0x02
 37a:	8b 83       	std	Y+3, r24	; 0x03
 37c:	9c 83       	std	Y+4, r25	; 0x04
 37e:	68 01       	movw	r12, r16
 380:	b0 e4       	ldi	r27, 0x40	; 64
 382:	cb 0e       	add	r12, r27
 384:	d1 1c       	adc	r13, r1
 386:	d6 01       	movw	r26, r12
 388:	ec 91       	ld	r30, X
 38a:	f0 e0       	ldi	r31, 0x00	; 0
 38c:	ee 0f       	add	r30, r30
 38e:	ff 1f       	adc	r31, r31
 390:	e0 0f       	add	r30, r16
 392:	f1 1f       	adc	r31, r17
 394:	44 e0       	ldi	r20, 0x04	; 4
 396:	50 e0       	ldi	r21, 0x00	; 0
 398:	be 01       	movw	r22, r28
 39a:	6f 5f       	subi	r22, 0xFF	; 255
 39c:	7f 4f       	sbci	r23, 0xFF	; 255
 39e:	83 85       	ldd	r24, Z+11	; 0x0b
 3a0:	94 85       	ldd	r25, Z+12	; 0x0c
 3a2:	e7 d4       	rcall	.+2510   	; 0xd72 <memmove>
 3a4:	d6 01       	movw	r26, r12
 3a6:	ec 91       	ld	r30, X
 3a8:	f0 e0       	ldi	r31, 0x00	; 0
 3aa:	ee 0f       	add	r30, r30
 3ac:	ff 1f       	adc	r31, r31
 3ae:	e0 0f       	add	r30, r16
 3b0:	f1 1f       	adc	r31, r17
 3b2:	f2 a6       	std	Z+42, r15	; 0x2a
 3b4:	e1 a6       	std	Z+41, r14	; 0x29
 3b6:	c8 01       	movw	r24, r16
 3b8:	2b df       	rcall	.-426    	; 0x210 <_ZN15HD44780_PCF857418UpdateWritePointerEv>
 3ba:	81 e0       	ldi	r24, 0x01	; 1
 3bc:	f8 01       	movw	r30, r16
 3be:	82 87       	std	Z+10, r24	; 0x0a
 3c0:	0f 90       	pop	r0
 3c2:	0f 90       	pop	r0
 3c4:	0f 90       	pop	r0
 3c6:	0f 90       	pop	r0
 3c8:	df 91       	pop	r29
 3ca:	cf 91       	pop	r28
 3cc:	1f 91       	pop	r17
 3ce:	0f 91       	pop	r16
 3d0:	ff 90       	pop	r15
 3d2:	ef 90       	pop	r14
 3d4:	df 90       	pop	r13
 3d6:	cf 90       	pop	r12
 3d8:	08 95       	ret

000003da <_ZN15HD44780_PCF85742OnEv>:
 3da:	42 e3       	ldi	r20, 0x32	; 50
 3dc:	50 e0       	ldi	r21, 0x00	; 0
 3de:	6c e0       	ldi	r22, 0x0C	; 12
 3e0:	af df       	rcall	.-162    	; 0x340 <_ZN15HD44780_PCF857410AddCommandEhj>
 3e2:	08 95       	ret

000003e4 <_ZN15HD44780_PCF85743OffEv>:
 3e4:	42 e3       	ldi	r20, 0x32	; 50
 3e6:	50 e0       	ldi	r21, 0x00	; 0
 3e8:	68 e0       	ldi	r22, 0x08	; 8
 3ea:	aa df       	rcall	.-172    	; 0x340 <_ZN15HD44780_PCF857410AddCommandEhj>
 3ec:	08 95       	ret

000003ee <_ZN15HD44780_PCF85745ClearEv>:
 3ee:	40 ed       	ldi	r20, 0xD0	; 208
 3f0:	57 e0       	ldi	r21, 0x07	; 7
 3f2:	61 e0       	ldi	r22, 0x01	; 1
 3f4:	a5 df       	rcall	.-182    	; 0x340 <_ZN15HD44780_PCF857410AddCommandEhj>
 3f6:	08 95       	ret

000003f8 <_ZN15HD44780_PCF8574C1EP3TWIhhhm12HD44780_Type>:
 3f8:	af 92       	push	r10
 3fa:	bf 92       	push	r11
 3fc:	cf 92       	push	r12
 3fe:	df 92       	push	r13
 400:	ef 92       	push	r14
 402:	ff 92       	push	r15
 404:	0f 93       	push	r16
 406:	1f 93       	push	r17
 408:	cf 93       	push	r28
 40a:	df 93       	push	r29
 40c:	ec 01       	movw	r28, r24
 40e:	8a e6       	ldi	r24, 0x6A	; 106
 410:	90 e0       	ldi	r25, 0x00	; 0
 412:	99 83       	std	Y+1, r25	; 0x01
 414:	88 83       	st	Y, r24
 416:	7b 83       	std	Y+3, r23	; 0x03
 418:	6a 83       	std	Y+2, r22	; 0x02
 41a:	50 e0       	ldi	r21, 0x00	; 0
 41c:	44 0f       	add	r20, r20
 41e:	55 1f       	adc	r21, r21
 420:	44 0f       	add	r20, r20
 422:	55 1f       	adc	r21, r21
 424:	44 0f       	add	r20, r20
 426:	55 1f       	adc	r21, r21
 428:	30 e0       	ldi	r19, 0x00	; 0
 42a:	22 0f       	add	r18, r18
 42c:	33 1f       	adc	r19, r19
 42e:	22 0f       	add	r18, r18
 430:	33 1f       	adc	r19, r19
 432:	10 e0       	ldi	r17, 0x00	; 0
 434:	00 0f       	add	r16, r16
 436:	11 1f       	adc	r17, r17
 438:	40 64       	ori	r20, 0x40	; 64
 43a:	24 2b       	or	r18, r20
 43c:	02 2b       	or	r16, r18
 43e:	0c 83       	std	Y+4, r16	; 0x04
 440:	cd 82       	std	Y+5, r12	; 0x05
 442:	de 82       	std	Y+6, r13	; 0x06
 444:	ef 82       	std	Y+7, r14	; 0x07
 446:	f8 86       	std	Y+8, r15	; 0x08
 448:	88 ef       	ldi	r24, 0xF8	; 248
 44a:	89 87       	std	Y+9, r24	; 0x09
 44c:	f5 01       	movw	r30, r10
 44e:	f6 95       	lsr	r31
 450:	e7 95       	ror	r30
 452:	f6 95       	lsr	r31
 454:	e7 95       	ror	r30
 456:	9f 01       	movw	r18, r30
 458:	ab e7       	ldi	r26, 0x7B	; 123
 45a:	b4 e1       	ldi	r27, 0x14	; 20
 45c:	57 d3       	rcall	.+1710   	; 0xb0c <__umulhisi3>
 45e:	ac 01       	movw	r20, r24
 460:	56 95       	lsr	r21
 462:	47 95       	ror	r20
 464:	de 01       	movw	r26, r28
 466:	af 5b       	subi	r26, 0xBF	; 191
 468:	bf 4f       	sbci	r27, 0xFF	; 255
 46a:	4c 93       	st	X, r20
 46c:	24 e6       	ldi	r18, 0x64	; 100
 46e:	24 9f       	mul	r18, r20
 470:	c0 01       	movw	r24, r0
 472:	25 9f       	mul	r18, r21
 474:	90 0d       	add	r25, r0
 476:	11 24       	eor	r1, r1
 478:	a8 1a       	sub	r10, r24
 47a:	b9 0a       	sbc	r11, r25
 47c:	fe 01       	movw	r30, r28
 47e:	ee 5b       	subi	r30, 0xBE	; 190
 480:	ff 4f       	sbci	r31, 0xFF	; 255
 482:	a0 82       	st	Z, r10
 484:	ce 01       	movw	r24, r28
 486:	55 de       	rcall	.-854    	; 0x132 <_ZN15HD44780_PCF857416ClearDataCounterEv>
 488:	1e ae       	std	Y+62, r1	; 0x3e
 48a:	1f ae       	std	Y+63, r1	; 0x3f
 48c:	fe 01       	movw	r30, r28
 48e:	e0 5c       	subi	r30, 0xC0	; 192
 490:	ff 4f       	sbci	r31, 0xFF	; 255
 492:	10 82       	st	Z, r1
 494:	48 e8       	ldi	r20, 0x88	; 136
 496:	53 e1       	ldi	r21, 0x13	; 19
 498:	63 e3       	ldi	r22, 0x33	; 51
 49a:	ce 01       	movw	r24, r28
 49c:	51 df       	rcall	.-350    	; 0x340 <_ZN15HD44780_PCF857410AddCommandEhj>
 49e:	44 e6       	ldi	r20, 0x64	; 100
 4a0:	50 e0       	ldi	r21, 0x00	; 0
 4a2:	62 e3       	ldi	r22, 0x32	; 50
 4a4:	ce 01       	movw	r24, r28
 4a6:	4c df       	rcall	.-360    	; 0x340 <_ZN15HD44780_PCF857410AddCommandEhj>
 4a8:	42 e3       	ldi	r20, 0x32	; 50
 4aa:	50 e0       	ldi	r21, 0x00	; 0
 4ac:	68 e2       	ldi	r22, 0x28	; 40
 4ae:	ce 01       	movw	r24, r28
 4b0:	47 df       	rcall	.-370    	; 0x340 <_ZN15HD44780_PCF857410AddCommandEhj>
 4b2:	ce 01       	movw	r24, r28
 4b4:	97 df       	rcall	.-210    	; 0x3e4 <_ZN15HD44780_PCF85743OffEv>
 4b6:	ce 01       	movw	r24, r28
 4b8:	9a df       	rcall	.-204    	; 0x3ee <_ZN15HD44780_PCF85745ClearEv>
 4ba:	42 e3       	ldi	r20, 0x32	; 50
 4bc:	50 e0       	ldi	r21, 0x00	; 0
 4be:	66 e0       	ldi	r22, 0x06	; 6
 4c0:	ce 01       	movw	r24, r28
 4c2:	3e df       	rcall	.-388    	; 0x340 <_ZN15HD44780_PCF857410AddCommandEhj>
 4c4:	ce 01       	movw	r24, r28
 4c6:	89 df       	rcall	.-238    	; 0x3da <_ZN15HD44780_PCF85742OnEv>
 4c8:	df 91       	pop	r29
 4ca:	cf 91       	pop	r28
 4cc:	1f 91       	pop	r17
 4ce:	0f 91       	pop	r16
 4d0:	ff 90       	pop	r15
 4d2:	ef 90       	pop	r14
 4d4:	df 90       	pop	r13
 4d6:	cf 90       	pop	r12
 4d8:	bf 90       	pop	r11
 4da:	af 90       	pop	r10
 4dc:	08 95       	ret

000004de <_ZN15HD44780_PCF857412InsertSymbolEhPKc>:
 4de:	af 92       	push	r10
 4e0:	bf 92       	push	r11
 4e2:	df 92       	push	r13
 4e4:	ef 92       	push	r14
 4e6:	ff 92       	push	r15
 4e8:	0f 93       	push	r16
 4ea:	1f 93       	push	r17
 4ec:	cf 93       	push	r28
 4ee:	df 93       	push	r29
 4f0:	00 d0       	rcall	.+0      	; 0x4f2 <_ZN15HD44780_PCF857412InsertSymbolEhPKc+0x14>
 4f2:	00 d0       	rcall	.+0      	; 0x4f4 <_ZN15HD44780_PCF857412InsertSymbolEhPKc+0x16>
 4f4:	cd b7       	in	r28, 0x3d	; 61
 4f6:	de b7       	in	r29, 0x3e	; 62
 4f8:	8c 01       	movw	r16, r24
 4fa:	5a 01       	movw	r10, r20
 4fc:	70 e0       	ldi	r23, 0x00	; 0
 4fe:	66 0f       	add	r22, r22
 500:	77 1f       	adc	r23, r23
 502:	66 0f       	add	r22, r22
 504:	77 1f       	adc	r23, r23
 506:	66 0f       	add	r22, r22
 508:	77 1f       	adc	r23, r23
 50a:	60 64       	ori	r22, 0x40	; 64
 50c:	42 e3       	ldi	r20, 0x32	; 50
 50e:	50 e0       	ldi	r21, 0x00	; 0
 510:	17 df       	rcall	.-466    	; 0x340 <_ZN15HD44780_PCF857410AddCommandEhj>
 512:	6c e1       	ldi	r22, 0x1C	; 28
 514:	c8 01       	movw	r24, r16
 516:	10 de       	rcall	.-992    	; 0x138 <_ZN15HD44780_PCF857413PrepareBufferEh>
 518:	d1 2c       	mov	r13, r1
 51a:	f8 01       	movw	r30, r16
 51c:	e0 5c       	subi	r30, 0xC0	; 192
 51e:	ff 4f       	sbci	r31, 0xFF	; 255
 520:	80 81       	ld	r24, Z
 522:	90 e0       	ldi	r25, 0x00	; 0
 524:	f8 01       	movw	r30, r16
 526:	e8 0f       	add	r30, r24
 528:	f9 1f       	adc	r31, r25
 52a:	27 8d       	ldd	r18, Z+31	; 0x1f
 52c:	d2 16       	cp	r13, r18
 52e:	20 f5       	brcc	.+72     	; 0x578 <_ZN15HD44780_PCF857412InsertSymbolEhPKc+0x9a>
 530:	75 01       	movw	r14, r10
 532:	8f ef       	ldi	r24, 0xFF	; 255
 534:	e8 1a       	sub	r14, r24
 536:	f8 0a       	sbc	r15, r24
 538:	40 e0       	ldi	r20, 0x00	; 0
 53a:	f5 01       	movw	r30, r10
 53c:	60 81       	ld	r22, Z
 53e:	c8 01       	movw	r24, r16
 540:	24 de       	rcall	.-952    	; 0x18a <_ZN15HD44780_PCF85748FormByteEh16HD44780_DataType>
 542:	69 83       	std	Y+1, r22	; 0x01
 544:	7a 83       	std	Y+2, r23	; 0x02
 546:	8b 83       	std	Y+3, r24	; 0x03
 548:	9c 83       	std	Y+4, r25	; 0x04
 54a:	f8 01       	movw	r30, r16
 54c:	e0 5c       	subi	r30, 0xC0	; 192
 54e:	ff 4f       	sbci	r31, 0xFF	; 255
 550:	e0 81       	ld	r30, Z
 552:	f0 e0       	ldi	r31, 0x00	; 0
 554:	ee 0f       	add	r30, r30
 556:	ff 1f       	adc	r31, r31
 558:	e0 0f       	add	r30, r16
 55a:	f1 1f       	adc	r31, r17
 55c:	83 85       	ldd	r24, Z+11	; 0x0b
 55e:	94 85       	ldd	r25, Z+12	; 0x0c
 560:	44 e0       	ldi	r20, 0x04	; 4
 562:	50 e0       	ldi	r21, 0x00	; 0
 564:	be 01       	movw	r22, r28
 566:	6f 5f       	subi	r22, 0xFF	; 255
 568:	7f 4f       	sbci	r23, 0xFF	; 255
 56a:	8d 0d       	add	r24, r13
 56c:	91 1d       	adc	r25, r1
 56e:	01 d4       	rcall	.+2050   	; 0xd72 <memmove>
 570:	f4 e0       	ldi	r31, 0x04	; 4
 572:	df 0e       	add	r13, r31
 574:	57 01       	movw	r10, r14
 576:	d1 cf       	rjmp	.-94     	; 0x51a <_ZN15HD44780_PCF857412InsertSymbolEhPKc+0x3c>
 578:	88 0f       	add	r24, r24
 57a:	99 1f       	adc	r25, r25
 57c:	f8 01       	movw	r30, r16
 57e:	e8 0f       	add	r30, r24
 580:	f9 1f       	adc	r31, r25
 582:	82 e3       	ldi	r24, 0x32	; 50
 584:	90 e0       	ldi	r25, 0x00	; 0
 586:	92 a7       	std	Z+42, r25	; 0x2a
 588:	81 a7       	std	Z+41, r24	; 0x29
 58a:	c8 01       	movw	r24, r16
 58c:	41 de       	rcall	.-894    	; 0x210 <_ZN15HD44780_PCF857418UpdateWritePointerEv>
 58e:	81 e0       	ldi	r24, 0x01	; 1
 590:	f8 01       	movw	r30, r16
 592:	82 87       	std	Z+10, r24	; 0x0a
 594:	0f 90       	pop	r0
 596:	0f 90       	pop	r0
 598:	0f 90       	pop	r0
 59a:	0f 90       	pop	r0
 59c:	df 91       	pop	r29
 59e:	cf 91       	pop	r28
 5a0:	1f 91       	pop	r17
 5a2:	0f 91       	pop	r16
 5a4:	ff 90       	pop	r15
 5a6:	ef 90       	pop	r14
 5a8:	df 90       	pop	r13
 5aa:	bf 90       	pop	r11
 5ac:	af 90       	pop	r10
 5ae:	08 95       	ret

000005b0 <_ZN15HD44780_PCF857417SetCursorPositionEhh>:
 5b0:	42 30       	cpi	r20, 0x02	; 2
 5b2:	30 f0       	brcs	.+12     	; 0x5c0 <_ZN15HD44780_PCF857417SetCursorPositionEhh+0x10>
 5b4:	41 70       	andi	r20, 0x01	; 1
 5b6:	fc 01       	movw	r30, r24
 5b8:	ef 5b       	subi	r30, 0xBF	; 191
 5ba:	ff 4f       	sbci	r31, 0xFF	; 255
 5bc:	20 81       	ld	r18, Z
 5be:	62 0f       	add	r22, r18
 5c0:	20 e4       	ldi	r18, 0x40	; 64
 5c2:	42 9f       	mul	r20, r18
 5c4:	60 0d       	add	r22, r0
 5c6:	11 24       	eor	r1, r1
 5c8:	60 68       	ori	r22, 0x80	; 128
 5ca:	42 e3       	ldi	r20, 0x32	; 50
 5cc:	50 e0       	ldi	r21, 0x00	; 0
 5ce:	b8 de       	rcall	.-656    	; 0x340 <_ZN15HD44780_PCF857410AddCommandEhj>
 5d0:	08 95       	ret

000005d2 <_ZN15HD44780_PCF857414CursorOversideEhh>:
 5d2:	fc 01       	movw	r30, r24
 5d4:	ef 5b       	subi	r30, 0xBF	; 191
 5d6:	ff 4f       	sbci	r31, 0xFF	; 255
 5d8:	20 81       	ld	r18, Z
 5da:	62 17       	cp	r22, r18
 5dc:	30 f4       	brcc	.+12     	; 0x5ea <_ZN15HD44780_PCF857414CursorOversideEhh+0x18>
 5de:	31 96       	adiw	r30, 0x01	; 1
 5e0:	80 81       	ld	r24, Z
 5e2:	48 17       	cp	r20, r24
 5e4:	20 f0       	brcs	.+8      	; 0x5ee <_ZN15HD44780_PCF857414CursorOversideEhh+0x1c>
 5e6:	81 e0       	ldi	r24, 0x01	; 1
 5e8:	08 95       	ret
 5ea:	81 e0       	ldi	r24, 0x01	; 1
 5ec:	08 95       	ret
 5ee:	80 e0       	ldi	r24, 0x00	; 0
 5f0:	08 95       	ret

000005f2 <_ZN15HD44780_PCF857415NormaliseLengthERhh>:
 5f2:	fb 01       	movw	r30, r22
 5f4:	50 81       	ld	r21, Z
 5f6:	25 2f       	mov	r18, r21
 5f8:	30 e0       	ldi	r19, 0x00	; 0
 5fa:	24 0f       	add	r18, r20
 5fc:	31 1d       	adc	r19, r1
 5fe:	8f 5b       	subi	r24, 0xBF	; 191
 600:	9f 4f       	sbci	r25, 0xFF	; 255
 602:	fc 01       	movw	r30, r24
 604:	80 81       	ld	r24, Z
 606:	e8 2f       	mov	r30, r24
 608:	f0 e0       	ldi	r31, 0x00	; 0
 60a:	e2 17       	cp	r30, r18
 60c:	f3 07       	cpc	r31, r19
 60e:	14 f4       	brge	.+4      	; 0x614 <_ZN15HD44780_PCF857415NormaliseLengthERhh+0x22>
 610:	58 2f       	mov	r21, r24
 612:	54 1b       	sub	r21, r20
 614:	fb 01       	movw	r30, r22
 616:	50 83       	st	Z, r21
 618:	08 95       	ret

0000061a <_ZN15HD44780_PCF85745PrintEPKchh>:

void HD44780_PCF8574::Print(const char *text, uint8_t slot, uint8_t line)
{
 61a:	af 92       	push	r10
 61c:	bf 92       	push	r11
 61e:	df 92       	push	r13
 620:	ef 92       	push	r14
 622:	ff 92       	push	r15
 624:	0f 93       	push	r16
 626:	1f 93       	push	r17
 628:	cf 93       	push	r28
 62a:	df 93       	push	r29
 62c:	00 d0       	rcall	.+0      	; 0x62e <_ZN15HD44780_PCF85745PrintEPKchh+0x14>
 62e:	00 d0       	rcall	.+0      	; 0x630 <_ZN15HD44780_PCF85745PrintEPKchh+0x16>
 630:	1f 92       	push	r1
 632:	cd b7       	in	r28, 0x3d	; 61
 634:	de b7       	in	r29, 0x3e	; 62
 636:	7c 01       	movw	r14, r24
 638:	5b 01       	movw	r10, r22
 63a:	14 2f       	mov	r17, r20
 63c:	02 2f       	mov	r16, r18
	if(CursorOverside(slot, line)) return;
 63e:	42 2f       	mov	r20, r18
 640:	61 2f       	mov	r22, r17
 642:	c7 df       	rcall	.-114    	; 0x5d2 <_ZN15HD44780_PCF857414CursorOversideEhh>
 644:	81 11       	cpse	r24, r1
 646:	58 c0       	rjmp	.+176    	; 0x6f8 <_ZN15HD44780_PCF85745PrintEPKchh+0xde>
	SetCursorPosition(slot, line);
 648:	40 2f       	mov	r20, r16
 64a:	61 2f       	mov	r22, r17
 64c:	c7 01       	movw	r24, r14
 64e:	b0 df       	rcall	.-160    	; 0x5b0 <_ZN15HD44780_PCF857417SetCursorPositionEhh>
	
	while(bufferCounter == LCD_BUF_SIZE);	
 650:	f7 01       	movw	r30, r14
 652:	86 ad       	ldd	r24, Z+62	; 0x3e
 654:	8a 30       	cpi	r24, 0x0A	; 10
 656:	e1 f3       	breq	.-8      	; 0x650 <_ZN15HD44780_PCF85745PrintEPKchh+0x36>
	
	uint8_t length = strlen(text);
 658:	f5 01       	movw	r30, r10
 65a:	01 90       	ld	r0, Z+
 65c:	00 20       	and	r0, r0
 65e:	e9 f7       	brne	.-6      	; 0x65a <_ZN15HD44780_PCF85745PrintEPKchh+0x40>
 660:	31 97       	sbiw	r30, 0x01	; 1
 662:	ea 19       	sub	r30, r10
 664:	fb 09       	sbc	r31, r11
 666:	e9 83       	std	Y+1, r30	; 0x01
	NormaliseLength(length, slot);
 668:	41 2f       	mov	r20, r17
 66a:	be 01       	movw	r22, r28
 66c:	6f 5f       	subi	r22, 0xFF	; 255
 66e:	7f 4f       	sbci	r23, 0xFF	; 255
 670:	c7 01       	movw	r24, r14
 672:	bf df       	rcall	.-130    	; 0x5f2 <_ZN15HD44780_PCF857415NormaliseLengthERhh>
	PrepareBuffer(length * sizeof(uint32_t));	
 674:	69 81       	ldd	r22, Y+1	; 0x01
 676:	66 0f       	add	r22, r22
 678:	66 0f       	add	r22, r22
 67a:	c7 01       	movw	r24, r14
 67c:	5d dd       	rcall	.-1350   	; 0x138 <_ZN15HD44780_PCF857413PrepareBufferEh>

	for(uint8_t i = 0; i < this->dataSize[this->writePointer]; i += sizeof(uint32_t))
 67e:	d1 2c       	mov	r13, r1
 680:	f7 01       	movw	r30, r14
 682:	e0 5c       	subi	r30, 0xC0	; 192
 684:	ff 4f       	sbci	r31, 0xFF	; 255
 686:	80 81       	ld	r24, Z
 688:	90 e0       	ldi	r25, 0x00	; 0
 68a:	f7 01       	movw	r30, r14
 68c:	e8 0f       	add	r30, r24
 68e:	f9 1f       	adc	r31, r25
 690:	27 8d       	ldd	r18, Z+31	; 0x1f
 692:	d2 16       	cp	r13, r18
 694:	18 f5       	brcc	.+70     	; 0x6dc <_ZN15HD44780_PCF85745PrintEPKchh+0xc2>
	{		
		uint32_t _data = FormByte(*text++, LCD_Data);		
 696:	85 01       	movw	r16, r10
 698:	0f 5f       	subi	r16, 0xFF	; 255
 69a:	1f 4f       	sbci	r17, 0xFF	; 255
 69c:	40 e0       	ldi	r20, 0x00	; 0
 69e:	f5 01       	movw	r30, r10
 6a0:	60 81       	ld	r22, Z
 6a2:	c7 01       	movw	r24, r14
 6a4:	72 dd       	rcall	.-1308   	; 0x18a <_ZN15HD44780_PCF85748FormByteEh16HD44780_DataType>
 6a6:	6a 83       	std	Y+2, r22	; 0x02
 6a8:	7b 83       	std	Y+3, r23	; 0x03
 6aa:	8c 83       	std	Y+4, r24	; 0x04
 6ac:	9d 83       	std	Y+5, r25	; 0x05
				
		memmove(buffer[this->writePointer] + i, (uint8_t*)&_data, sizeof(uint32_t));
 6ae:	f7 01       	movw	r30, r14
 6b0:	e0 5c       	subi	r30, 0xC0	; 192
 6b2:	ff 4f       	sbci	r31, 0xFF	; 255
 6b4:	e0 81       	ld	r30, Z
 6b6:	f0 e0       	ldi	r31, 0x00	; 0
 6b8:	ee 0f       	add	r30, r30
 6ba:	ff 1f       	adc	r31, r31
 6bc:	ee 0d       	add	r30, r14
 6be:	ff 1d       	adc	r31, r15
 6c0:	83 85       	ldd	r24, Z+11	; 0x0b
 6c2:	94 85       	ldd	r25, Z+12	; 0x0c
 6c4:	44 e0       	ldi	r20, 0x04	; 4
 6c6:	50 e0       	ldi	r21, 0x00	; 0
 6c8:	be 01       	movw	r22, r28
 6ca:	6e 5f       	subi	r22, 0xFE	; 254
 6cc:	7f 4f       	sbci	r23, 0xFF	; 255
 6ce:	8d 0d       	add	r24, r13
 6d0:	91 1d       	adc	r25, r1
 6d2:	4f d3       	rcall	.+1694   	; 0xd72 <memmove>
	
	uint8_t length = strlen(text);
	NormaliseLength(length, slot);
	PrepareBuffer(length * sizeof(uint32_t));	

	for(uint8_t i = 0; i < this->dataSize[this->writePointer]; i += sizeof(uint32_t))
 6d4:	f4 e0       	ldi	r31, 0x04	; 4
 6d6:	df 0e       	add	r13, r31
	{		
		uint32_t _data = FormByte(*text++, LCD_Data);		
 6d8:	58 01       	movw	r10, r16
	
	uint8_t length = strlen(text);
	NormaliseLength(length, slot);
	PrepareBuffer(length * sizeof(uint32_t));	

	for(uint8_t i = 0; i < this->dataSize[this->writePointer]; i += sizeof(uint32_t))
 6da:	d2 cf       	rjmp	.-92     	; 0x680 <_ZN15HD44780_PCF85745PrintEPKchh+0x66>
		uint32_t _data = FormByte(*text++, LCD_Data);		
				
		memmove(buffer[this->writePointer] + i, (uint8_t*)&_data, sizeof(uint32_t));
	}
	
	this->delay[this->writePointer] = 50;
 6dc:	88 0f       	add	r24, r24
 6de:	99 1f       	adc	r25, r25
 6e0:	f7 01       	movw	r30, r14
 6e2:	e8 0f       	add	r30, r24
 6e4:	f9 1f       	adc	r31, r25
 6e6:	82 e3       	ldi	r24, 0x32	; 50
 6e8:	90 e0       	ldi	r25, 0x00	; 0
 6ea:	92 a7       	std	Z+42, r25	; 0x2a
 6ec:	81 a7       	std	Z+41, r24	; 0x29
	
	UpdateWritePointer();
 6ee:	c7 01       	movw	r24, r14
 6f0:	8f dd       	rcall	.-1250   	; 0x210 <_ZN15HD44780_PCF857418UpdateWritePointerEv>
	
	this->transactionStatus = TWI_InProcess;
 6f2:	81 e0       	ldi	r24, 0x01	; 1
 6f4:	f7 01       	movw	r30, r14
 6f6:	82 87       	std	Z+10, r24	; 0x0a
}
 6f8:	0f 90       	pop	r0
 6fa:	0f 90       	pop	r0
 6fc:	0f 90       	pop	r0
 6fe:	0f 90       	pop	r0
 700:	0f 90       	pop	r0
 702:	df 91       	pop	r29
 704:	cf 91       	pop	r28
 706:	1f 91       	pop	r17
 708:	0f 91       	pop	r16
 70a:	ff 90       	pop	r15
 70c:	ef 90       	pop	r14
 70e:	df 90       	pop	r13
 710:	bf 90       	pop	r11
 712:	af 90       	pop	r10
 714:	08 95       	ret

00000716 <_ZN15HD44780_PCF857414PrintAlignmentEPKch17HD44780_Alignment>:

void HD44780_PCF8574::PrintAlignment(const char* text, uint8_t line, HD44780_Alignment alignment)
{
 716:	54 2f       	mov	r21, r20
	uint8_t slot = 0;
	
	switch(alignment)
 718:	21 30       	cpi	r18, 0x01	; 1
 71a:	19 f0       	breq	.+6      	; 0x722 <_ZN15HD44780_PCF857414PrintAlignmentEPKch17HD44780_Alignment+0xc>
 71c:	22 30       	cpi	r18, 0x02	; 2
 71e:	79 f0       	breq	.+30     	; 0x73e <_ZN15HD44780_PCF857414PrintAlignmentEPKch17HD44780_Alignment+0x28>
 720:	20 c0       	rjmp	.+64     	; 0x762 <_ZN15HD44780_PCF857414PrintAlignmentEPKch17HD44780_Alignment+0x4c>
			slot = 0;
		}break;
		
		case RIGHT_SIDE:
		{
			slot = symbols - strlen(text);
 722:	fc 01       	movw	r30, r24
 724:	ef 5b       	subi	r30, 0xBF	; 191
 726:	ff 4f       	sbci	r31, 0xFF	; 255
 728:	20 81       	ld	r18, Z
 72a:	fb 01       	movw	r30, r22
 72c:	01 90       	ld	r0, Z+
 72e:	00 20       	and	r0, r0
 730:	e9 f7       	brne	.-6      	; 0x72c <_ZN15HD44780_PCF857414PrintAlignmentEPKch17HD44780_Alignment+0x16>
 732:	31 97       	sbiw	r30, 0x01	; 1
 734:	e6 1b       	sub	r30, r22
 736:	f7 0b       	sbc	r31, r23
 738:	42 2f       	mov	r20, r18
 73a:	4e 1b       	sub	r20, r30
		}break;
 73c:	13 c0       	rjmp	.+38     	; 0x764 <_ZN15HD44780_PCF857414PrintAlignmentEPKch17HD44780_Alignment+0x4e>
		
		case CENTER_SCREEN:
		{
			slot = (symbols - strlen(text)) / 2;
 73e:	fc 01       	movw	r30, r24
 740:	ef 5b       	subi	r30, 0xBF	; 191
 742:	ff 4f       	sbci	r31, 0xFF	; 255
 744:	20 81       	ld	r18, Z
 746:	fb 01       	movw	r30, r22
 748:	01 90       	ld	r0, Z+
 74a:	00 20       	and	r0, r0
 74c:	e9 f7       	brne	.-6      	; 0x748 <_ZN15HD44780_PCF857414PrintAlignmentEPKch17HD44780_Alignment+0x32>
 74e:	31 97       	sbiw	r30, 0x01	; 1
 750:	e6 1b       	sub	r30, r22
 752:	f7 0b       	sbc	r31, r23
 754:	30 e0       	ldi	r19, 0x00	; 0
 756:	2e 1b       	sub	r18, r30
 758:	3f 0b       	sbc	r19, r31
 75a:	36 95       	lsr	r19
 75c:	27 95       	ror	r18
 75e:	42 2f       	mov	r20, r18
		}break;
 760:	01 c0       	rjmp	.+2      	; 0x764 <_ZN15HD44780_PCF857414PrintAlignmentEPKch17HD44780_Alignment+0x4e>
	this->transactionStatus = TWI_InProcess;
}

void HD44780_PCF8574::PrintAlignment(const char* text, uint8_t line, HD44780_Alignment alignment)
{
	uint8_t slot = 0;
 762:	40 e0       	ldi	r20, 0x00	; 0
		{
			slot = (symbols - strlen(text)) / 2;
		}break;
	}
	
	Print(text, slot, line);
 764:	25 2f       	mov	r18, r21
 766:	59 df       	rcall	.-334    	; 0x61a <_ZN15HD44780_PCF85745PrintEPKchh>
 768:	08 95       	ret

0000076a <_Z41__static_initialization_and_destruction_0ii>:


    while (1) 
    {
    }
}
 76a:	af 92       	push	r10
 76c:	bf 92       	push	r11
 76e:	cf 92       	push	r12
 770:	df 92       	push	r13
 772:	ef 92       	push	r14
 774:	ff 92       	push	r15
 776:	0f 93       	push	r16
 778:	cf 93       	push	r28
 77a:	df 93       	push	r29
 77c:	01 97       	sbiw	r24, 0x01	; 1
 77e:	71 f5       	brne	.+92     	; 0x7dc <_Z41__static_initialization_and_destruction_0ii+0x72>
 780:	6f 3f       	cpi	r22, 0xFF	; 255
 782:	7f 4f       	sbci	r23, 0xFF	; 255
 784:	59 f5       	brne	.+86     	; 0x7dc <_Z41__static_initialization_and_destruction_0ii+0x72>
#define Rectangle (const char[]){0b00011111, 0b00010001, 0b00010001, 0b00010001, 0b00010001, 0b00010001, 0b00011111}
#define RectAddr 1
#define RectangleSymbol (const char[]){RectAddr, '\0'}


TWI *twi = new TWI(F_CPU);
 786:	80 e1       	ldi	r24, 0x10	; 16
 788:	90 e0       	ldi	r25, 0x00	; 0
 78a:	88 d1       	rcall	.+784    	; 0xa9c <_ZN3TWInwEj>
 78c:	ec 01       	movw	r28, r24
 78e:	40 e0       	ldi	r20, 0x00	; 0
 790:	52 e1       	ldi	r21, 0x12	; 18
 792:	6a e7       	ldi	r22, 0x7A	; 122
 794:	70 e0       	ldi	r23, 0x00	; 0
 796:	bd d0       	rcall	.+378    	; 0x912 <_ZN3TWIC1Em>
 798:	d0 93 95 00 	sts	0x0095, r29	; 0x800095 <twi+0x1>
 79c:	c0 93 94 00 	sts	0x0094, r28	; 0x800094 <twi>

HD44780_PCF8574 *lcd = new HD44780_PCF8574(twi, 0, 0, 1, 50000, WH2004);
 7a0:	83 e4       	ldi	r24, 0x43	; 67
 7a2:	90 e0       	ldi	r25, 0x00	; 0
 7a4:	bc dc       	rcall	.-1672   	; 0x11e <_ZN15HD44780_PCF8574nwEj>
 7a6:	ec 01       	movw	r28, r24
 7a8:	60 91 94 00 	lds	r22, 0x0094	; 0x800094 <twi>
 7ac:	70 91 95 00 	lds	r23, 0x0095	; 0x800095 <twi+0x1>
 7b0:	0f 2e       	mov	r0, r31
 7b2:	f4 ed       	ldi	r31, 0xD4	; 212
 7b4:	af 2e       	mov	r10, r31
 7b6:	f7 e0       	ldi	r31, 0x07	; 7
 7b8:	bf 2e       	mov	r11, r31
 7ba:	f0 2d       	mov	r31, r0
 7bc:	0f 2e       	mov	r0, r31
 7be:	f0 e5       	ldi	r31, 0x50	; 80
 7c0:	cf 2e       	mov	r12, r31
 7c2:	f3 ec       	ldi	r31, 0xC3	; 195
 7c4:	df 2e       	mov	r13, r31
 7c6:	e1 2c       	mov	r14, r1
 7c8:	f1 2c       	mov	r15, r1
 7ca:	f0 2d       	mov	r31, r0
 7cc:	01 e0       	ldi	r16, 0x01	; 1
 7ce:	20 e0       	ldi	r18, 0x00	; 0
 7d0:	40 e0       	ldi	r20, 0x00	; 0
 7d2:	12 de       	rcall	.-988    	; 0x3f8 <_ZN15HD44780_PCF8574C1EP3TWIhhhm12HD44780_Type>
 7d4:	d0 93 93 00 	sts	0x0093, r29	; 0x800093 <__data_end+0x1>
 7d8:	c0 93 92 00 	sts	0x0092, r28	; 0x800092 <__data_end>


    while (1) 
    {
    }
}
 7dc:	df 91       	pop	r29
 7de:	cf 91       	pop	r28
 7e0:	0f 91       	pop	r16
 7e2:	ff 90       	pop	r15
 7e4:	ef 90       	pop	r14
 7e6:	df 90       	pop	r13
 7e8:	cf 90       	pop	r12
 7ea:	bf 90       	pop	r11
 7ec:	af 90       	pop	r10
 7ee:	08 95       	ret

000007f0 <__vector_17>:

HD44780_PCF8574 *lcd = new HD44780_PCF8574(twi, 0, 0, 1, 50000, WH2004);


ISR(TWI_vect)
{
 7f0:	1f 92       	push	r1
 7f2:	0f 92       	push	r0
 7f4:	0f b6       	in	r0, 0x3f	; 63
 7f6:	0f 92       	push	r0
 7f8:	11 24       	eor	r1, r1
 7fa:	2f 93       	push	r18
 7fc:	3f 93       	push	r19
 7fe:	4f 93       	push	r20
 800:	5f 93       	push	r21
 802:	6f 93       	push	r22
 804:	7f 93       	push	r23
 806:	8f 93       	push	r24
 808:	9f 93       	push	r25
 80a:	af 93       	push	r26
 80c:	bf 93       	push	r27
 80e:	ef 93       	push	r30
 810:	ff 93       	push	r31
	twi->HandleDataChange();
 812:	80 91 94 00 	lds	r24, 0x0094	; 0x800094 <twi>
 816:	90 91 95 00 	lds	r25, 0x0095	; 0x800095 <twi+0x1>
 81a:	c4 d0       	rcall	.+392    	; 0x9a4 <_ZN3TWI16HandleDataChangeEv>
}
 81c:	ff 91       	pop	r31
 81e:	ef 91       	pop	r30
 820:	bf 91       	pop	r27
 822:	af 91       	pop	r26
 824:	9f 91       	pop	r25
 826:	8f 91       	pop	r24
 828:	7f 91       	pop	r23
 82a:	6f 91       	pop	r22
 82c:	5f 91       	pop	r21
 82e:	4f 91       	pop	r20
 830:	3f 91       	pop	r19
 832:	2f 91       	pop	r18
 834:	0f 90       	pop	r0
 836:	0f be       	out	0x3f, r0	; 63
 838:	0f 90       	pop	r0
 83a:	1f 90       	pop	r1
 83c:	18 95       	reti

0000083e <__vector_9>:

ISR(TIMER0_OVF_vect)
{
 83e:	1f 92       	push	r1
 840:	0f 92       	push	r0
 842:	0f b6       	in	r0, 0x3f	; 63
 844:	0f 92       	push	r0
 846:	11 24       	eor	r1, r1
 848:	2f 93       	push	r18
 84a:	3f 93       	push	r19
 84c:	4f 93       	push	r20
 84e:	5f 93       	push	r21
 850:	6f 93       	push	r22
 852:	7f 93       	push	r23
 854:	8f 93       	push	r24
 856:	9f 93       	push	r25
 858:	af 93       	push	r26
 85a:	bf 93       	push	r27
 85c:	ef 93       	push	r30
 85e:	ff 93       	push	r31
	twi->CheckDevices();
 860:	80 91 94 00 	lds	r24, 0x0094	; 0x800094 <twi>
 864:	90 91 95 00 	lds	r25, 0x0095	; 0x800095 <twi+0x1>
 868:	b7 d0       	rcall	.+366    	; 0x9d8 <_ZN3TWI12CheckDevicesEv>
}
 86a:	ff 91       	pop	r31
 86c:	ef 91       	pop	r30
 86e:	bf 91       	pop	r27
 870:	af 91       	pop	r26
 872:	9f 91       	pop	r25
 874:	8f 91       	pop	r24
 876:	7f 91       	pop	r23
 878:	6f 91       	pop	r22
 87a:	5f 91       	pop	r21
 87c:	4f 91       	pop	r20
 87e:	3f 91       	pop	r19
 880:	2f 91       	pop	r18
 882:	0f 90       	pop	r0
 884:	0f be       	out	0x3f, r0	; 63
 886:	0f 90       	pop	r0
 888:	1f 90       	pop	r1
 88a:	18 95       	reti

0000088c <main>:

int main(void)
{
	//T0
	TCCR0|=(1<<CS02)|(1<<CS00);	//prescaler 1024
 88c:	83 b7       	in	r24, 0x33	; 51
 88e:	85 60       	ori	r24, 0x05	; 5
 890:	83 bf       	out	0x33, r24	; 51
	TIMSK|=(1<<TOIE0);			//enable interrupt OVF
 892:	89 b7       	in	r24, 0x39	; 57
 894:	81 60       	ori	r24, 0x01	; 1
 896:	89 bf       	out	0x39, r24	; 57

	twi->AddDevice(lcd);
 898:	60 91 92 00 	lds	r22, 0x0092	; 0x800092 <__data_end>
 89c:	70 91 93 00 	lds	r23, 0x0093	; 0x800093 <__data_end+0x1>
 8a0:	80 91 94 00 	lds	r24, 0x0094	; 0x800094 <twi>
 8a4:	90 91 95 00 	lds	r25, 0x0095	; 0x800095 <twi+0x1>
 8a8:	3c d0       	rcall	.+120    	; 0x922 <_ZN3TWI9AddDeviceEP4ITWI>
		
	sei();
 8aa:	78 94       	sei
		
	lcd->InsertSymbol(RectAddr, Rectangle);
 8ac:	4b e8       	ldi	r20, 0x8B	; 139
 8ae:	50 e0       	ldi	r21, 0x00	; 0
 8b0:	61 e0       	ldi	r22, 0x01	; 1
 8b2:	80 91 92 00 	lds	r24, 0x0092	; 0x800092 <__data_end>
 8b6:	90 91 93 00 	lds	r25, 0x0093	; 0x800093 <__data_end+0x1>
 8ba:	11 de       	rcall	.-990    	; 0x4de <_ZN15HD44780_PCF857412InsertSymbolEhPKc>
		
	lcd->Print("hello", 5, 0);
 8bc:	20 e0       	ldi	r18, 0x00	; 0
 8be:	45 e0       	ldi	r20, 0x05	; 5
 8c0:	60 e7       	ldi	r22, 0x70	; 112
 8c2:	70 e0       	ldi	r23, 0x00	; 0
 8c4:	80 91 92 00 	lds	r24, 0x0092	; 0x800092 <__data_end>
 8c8:	90 91 93 00 	lds	r25, 0x0093	; 0x800093 <__data_end+0x1>
 8cc:	a6 de       	rcall	.-692    	; 0x61a <_ZN15HD44780_PCF85745PrintEPKchh>
	lcd->PrintAlignment("alignment", 2, CENTER_SCREEN);
 8ce:	22 e0       	ldi	r18, 0x02	; 2
 8d0:	42 e0       	ldi	r20, 0x02	; 2
 8d2:	66 e7       	ldi	r22, 0x76	; 118
 8d4:	70 e0       	ldi	r23, 0x00	; 0
 8d6:	80 91 92 00 	lds	r24, 0x0092	; 0x800092 <__data_end>
 8da:	90 91 93 00 	lds	r25, 0x0093	; 0x800093 <__data_end+0x1>
 8de:	1b df       	rcall	.-458    	; 0x716 <_ZN15HD44780_PCF857414PrintAlignmentEPKch17HD44780_Alignment>
	lcd->Print("overflow", 17, 3);
 8e0:	23 e0       	ldi	r18, 0x03	; 3
 8e2:	41 e1       	ldi	r20, 0x11	; 17
 8e4:	60 e8       	ldi	r22, 0x80	; 128
 8e6:	70 e0       	ldi	r23, 0x00	; 0
 8e8:	80 91 92 00 	lds	r24, 0x0092	; 0x800092 <__data_end>
 8ec:	90 91 93 00 	lds	r25, 0x0093	; 0x800093 <__data_end+0x1>
 8f0:	94 de       	rcall	.-728    	; 0x61a <_ZN15HD44780_PCF85745PrintEPKchh>
		
	lcd->Print(RectangleSymbol, 0, 3);
 8f2:	23 e0       	ldi	r18, 0x03	; 3
 8f4:	40 e0       	ldi	r20, 0x00	; 0
 8f6:	69 e8       	ldi	r22, 0x89	; 137
 8f8:	70 e0       	ldi	r23, 0x00	; 0
 8fa:	80 91 92 00 	lds	r24, 0x0092	; 0x800092 <__data_end>
 8fe:	90 91 93 00 	lds	r25, 0x0093	; 0x800093 <__data_end+0x1>
 902:	8b de       	rcall	.-746    	; 0x61a <_ZN15HD44780_PCF85745PrintEPKchh>
 904:	ff cf       	rjmp	.-2      	; 0x904 <main+0x78>

00000906 <_GLOBAL__sub_I_twi>:


    while (1) 
    {
    }
}
 906:	6f ef       	ldi	r22, 0xFF	; 255
 908:	7f ef       	ldi	r23, 0xFF	; 255
 90a:	81 e0       	ldi	r24, 0x01	; 1
 90c:	90 e0       	ldi	r25, 0x00	; 0
 90e:	2d df       	rcall	.-422    	; 0x76a <_Z41__static_initialization_and_destruction_0ii>
 910:	08 95       	ret

00000912 <_ZN3TWIC1Em>:
	TWCR = (1<<TWEN)|(0<<TWIE)|(0<<TWINT)|(0<<TWEA)|(0<<TWSTA)|(1<<TWSTO)|(0<<TWWC);
	
	++selectedDevice %= devicesQuantiy;
}

TWI::~TWI(){}
 912:	fc 01       	movw	r30, r24
 914:	40 83       	st	Z, r20
 916:	51 83       	std	Z+1, r21	; 0x01
 918:	62 83       	std	Z+2, r22	; 0x02
 91a:	73 83       	std	Z+3, r23	; 0x03
 91c:	16 86       	std	Z+14, r1	; 0x0e
 91e:	17 86       	std	Z+15, r1	; 0x0f
 920:	08 95       	ret

00000922 <_ZN3TWI9AddDeviceEP4ITWI>:
 922:	dc 01       	movw	r26, r24
 924:	1e 96       	adiw	r26, 0x0e	; 14
 926:	9c 91       	ld	r25, X
 928:	1e 97       	sbiw	r26, 0x0e	; 14
 92a:	93 30       	cpi	r25, 0x03	; 3
 92c:	60 f4       	brcc	.+24     	; 0x946 <_ZN3TWI9AddDeviceEP4ITWI+0x24>
 92e:	e9 2f       	mov	r30, r25
 930:	f0 e0       	ldi	r31, 0x00	; 0
 932:	34 96       	adiw	r30, 0x04	; 4
 934:	ee 0f       	add	r30, r30
 936:	ff 1f       	adc	r31, r31
 938:	ea 0f       	add	r30, r26
 93a:	fb 1f       	adc	r31, r27
 93c:	71 83       	std	Z+1, r23	; 0x01
 93e:	60 83       	st	Z, r22
 940:	9f 5f       	subi	r25, 0xFF	; 255
 942:	1e 96       	adiw	r26, 0x0e	; 14
 944:	9c 93       	st	X, r25
 946:	08 95       	ret

00000948 <_ZN3TWI17SetClockFrequencyEm>:
 948:	cf 92       	push	r12
 94a:	df 92       	push	r13
 94c:	ef 92       	push	r14
 94e:	ff 92       	push	r15
 950:	cf 93       	push	r28
 952:	df 93       	push	r29
 954:	ec 01       	movw	r28, r24
 956:	6a 01       	movw	r12, r20
 958:	7b 01       	movw	r14, r22
 95a:	8c 81       	ldd	r24, Y+4	; 0x04
 95c:	9d 81       	ldd	r25, Y+5	; 0x05
 95e:	ae 81       	ldd	r26, Y+6	; 0x06
 960:	bf 81       	ldd	r27, Y+7	; 0x07
 962:	84 17       	cp	r24, r20
 964:	95 07       	cpc	r25, r21
 966:	a6 07       	cpc	r26, r22
 968:	b7 07       	cpc	r27, r23
 96a:	a9 f0       	breq	.+42     	; 0x996 <_ZN3TWI17SetClockFrequencyEm+0x4e>
 96c:	68 81       	ld	r22, Y
 96e:	79 81       	ldd	r23, Y+1	; 0x01
 970:	8a 81       	ldd	r24, Y+2	; 0x02
 972:	9b 81       	ldd	r25, Y+3	; 0x03
 974:	a7 01       	movw	r20, r14
 976:	96 01       	movw	r18, r12
 978:	a7 d0       	rcall	.+334    	; 0xac8 <__udivmodsi4>
 97a:	da 01       	movw	r26, r20
 97c:	c9 01       	movw	r24, r18
 97e:	40 97       	sbiw	r24, 0x10	; 16
 980:	a1 09       	sbc	r26, r1
 982:	b1 09       	sbc	r27, r1
 984:	b6 95       	lsr	r27
 986:	a7 95       	ror	r26
 988:	97 95       	ror	r25
 98a:	87 95       	ror	r24
 98c:	80 b9       	out	0x00, r24	; 0
 98e:	cc 82       	std	Y+4, r12	; 0x04
 990:	dd 82       	std	Y+5, r13	; 0x05
 992:	ee 82       	std	Y+6, r14	; 0x06
 994:	ff 82       	std	Y+7, r15	; 0x07
 996:	df 91       	pop	r29
 998:	cf 91       	pop	r28
 99a:	ff 90       	pop	r15
 99c:	ef 90       	pop	r14
 99e:	df 90       	pop	r13
 9a0:	cf 90       	pop	r12
 9a2:	08 95       	ret

000009a4 <_ZN3TWI16HandleDataChangeEv>:
 9a4:	dc 01       	movw	r26, r24
 9a6:	1f 96       	adiw	r26, 0x0f	; 15
 9a8:	9c 91       	ld	r25, X
 9aa:	1f 97       	sbiw	r26, 0x0f	; 15
 9ac:	e9 2f       	mov	r30, r25
 9ae:	f0 e0       	ldi	r31, 0x00	; 0
 9b0:	34 96       	adiw	r30, 0x04	; 4
 9b2:	ee 0f       	add	r30, r30
 9b4:	ff 1f       	adc	r31, r31
 9b6:	ea 0f       	add	r30, r26
 9b8:	fb 1f       	adc	r31, r27
 9ba:	80 81       	ld	r24, Z
 9bc:	91 81       	ldd	r25, Z+1	; 0x01
 9be:	dc 01       	movw	r26, r24
 9c0:	ed 91       	ld	r30, X+
 9c2:	fc 91       	ld	r31, X
 9c4:	04 80       	ldd	r0, Z+4	; 0x04
 9c6:	f5 81       	ldd	r31, Z+5	; 0x05
 9c8:	e0 2d       	mov	r30, r0
 9ca:	61 b1       	in	r22, 0x01	; 1
 9cc:	68 7f       	andi	r22, 0xF8	; 248
 9ce:	09 95       	icall
 9d0:	08 95       	ret

000009d2 <_ZN3TWI5StartEv>:
 9d2:	85 ea       	ldi	r24, 0xA5	; 165
 9d4:	86 bf       	out	0x36, r24	; 54
 9d6:	08 95       	ret

000009d8 <_ZN3TWI12CheckDevicesEv>:
 9d8:	cf 93       	push	r28
 9da:	df 93       	push	r29
 9dc:	06 b6       	in	r0, 0x36	; 54
 9de:	00 fc       	sbrc	r0, 0
 9e0:	2f c0       	rjmp	.+94     	; 0xa40 <_ZN3TWI12CheckDevicesEv+0x68>
 9e2:	ec 01       	movw	r28, r24
 9e4:	ef 85       	ldd	r30, Y+15	; 0x0f
 9e6:	f0 e0       	ldi	r31, 0x00	; 0
 9e8:	34 96       	adiw	r30, 0x04	; 4
 9ea:	ee 0f       	add	r30, r30
 9ec:	ff 1f       	adc	r31, r31
 9ee:	e8 0f       	add	r30, r24
 9f0:	f9 1f       	adc	r31, r25
 9f2:	80 81       	ld	r24, Z
 9f4:	91 81       	ldd	r25, Z+1	; 0x01
 9f6:	dc 01       	movw	r26, r24
 9f8:	ed 91       	ld	r30, X+
 9fa:	fc 91       	ld	r31, X
 9fc:	02 80       	ldd	r0, Z+2	; 0x02
 9fe:	f3 81       	ldd	r31, Z+3	; 0x03
 a00:	e0 2d       	mov	r30, r0
 a02:	09 95       	icall
 a04:	81 30       	cpi	r24, 0x01	; 1
 a06:	b9 f4       	brne	.+46     	; 0xa36 <_ZN3TWI12CheckDevicesEv+0x5e>
 a08:	ef 85       	ldd	r30, Y+15	; 0x0f
 a0a:	f0 e0       	ldi	r31, 0x00	; 0
 a0c:	34 96       	adiw	r30, 0x04	; 4
 a0e:	ee 0f       	add	r30, r30
 a10:	ff 1f       	adc	r31, r31
 a12:	ec 0f       	add	r30, r28
 a14:	fd 1f       	adc	r31, r29
 a16:	80 81       	ld	r24, Z
 a18:	91 81       	ldd	r25, Z+1	; 0x01
 a1a:	dc 01       	movw	r26, r24
 a1c:	ed 91       	ld	r30, X+
 a1e:	fc 91       	ld	r31, X
 a20:	01 90       	ld	r0, Z+
 a22:	f0 81       	ld	r31, Z
 a24:	e0 2d       	mov	r30, r0
 a26:	09 95       	icall
 a28:	ab 01       	movw	r20, r22
 a2a:	bc 01       	movw	r22, r24
 a2c:	ce 01       	movw	r24, r28
 a2e:	8c df       	rcall	.-232    	; 0x948 <_ZN3TWI17SetClockFrequencyEm>
 a30:	ce 01       	movw	r24, r28
 a32:	cf df       	rcall	.-98     	; 0x9d2 <_ZN3TWI5StartEv>
 a34:	05 c0       	rjmp	.+10     	; 0xa40 <_ZN3TWI12CheckDevicesEv+0x68>
 a36:	8f 85       	ldd	r24, Y+15	; 0x0f
 a38:	8f 5f       	subi	r24, 0xFF	; 255
 a3a:	6e 85       	ldd	r22, Y+14	; 0x0e
 a3c:	39 d0       	rcall	.+114    	; 0xab0 <__udivmodqi4>
 a3e:	9f 87       	std	Y+15, r25	; 0x0f
 a40:	df 91       	pop	r29
 a42:	cf 91       	pop	r28
 a44:	08 95       	ret

00000a46 <_ZN3TWI11WriteToTWDREh>:
 a46:	63 b9       	out	0x03, r22	; 3
 a48:	85 e8       	ldi	r24, 0x85	; 133
 a4a:	86 bf       	out	0x36, r24	; 54
 a4c:	08 95       	ret

00000a4e <_ZN3TWI4StopEv>:
 a4e:	cf 93       	push	r28
 a50:	df 93       	push	r29
 a52:	ec 01       	movw	r28, r24
 a54:	84 e9       	ldi	r24, 0x94	; 148
 a56:	86 bf       	out	0x36, r24	; 54
 a58:	ef 85       	ldd	r30, Y+15	; 0x0f
 a5a:	f0 e0       	ldi	r31, 0x00	; 0
 a5c:	34 96       	adiw	r30, 0x04	; 4
 a5e:	ee 0f       	add	r30, r30
 a60:	ff 1f       	adc	r31, r31
 a62:	ec 0f       	add	r30, r28
 a64:	fd 1f       	adc	r31, r29
 a66:	80 81       	ld	r24, Z
 a68:	91 81       	ldd	r25, Z+1	; 0x01
 a6a:	dc 01       	movw	r26, r24
 a6c:	ed 91       	ld	r30, X+
 a6e:	fc 91       	ld	r31, X
 a70:	04 80       	ldd	r0, Z+4	; 0x04
 a72:	f5 81       	ldd	r31, Z+5	; 0x05
 a74:	e0 2d       	mov	r30, r0
 a76:	68 ef       	ldi	r22, 0xF8	; 248
 a78:	09 95       	icall
 a7a:	8f 85       	ldd	r24, Y+15	; 0x0f
 a7c:	8f 5f       	subi	r24, 0xFF	; 255
 a7e:	6e 85       	ldd	r22, Y+14	; 0x0e
 a80:	17 d0       	rcall	.+46     	; 0xab0 <__udivmodqi4>
 a82:	9f 87       	std	Y+15, r25	; 0x0f
 a84:	df 91       	pop	r29
 a86:	cf 91       	pop	r28
 a88:	08 95       	ret

00000a8a <_ZN3TWI16DisableInterruptEv>:
 a8a:	fc 01       	movw	r30, r24
 a8c:	84 e1       	ldi	r24, 0x14	; 20
 a8e:	86 bf       	out	0x36, r24	; 54
 a90:	87 85       	ldd	r24, Z+15	; 0x0f
 a92:	8f 5f       	subi	r24, 0xFF	; 255
 a94:	66 85       	ldd	r22, Z+14	; 0x0e
 a96:	0c d0       	rcall	.+24     	; 0xab0 <__udivmodqi4>
 a98:	97 87       	std	Z+15, r25	; 0x0f
 a9a:	08 95       	ret

00000a9c <_ZN3TWInwEj>:

void* TWI::operator new(size_t size)
{
 a9c:	cf 93       	push	r28
 a9e:	df 93       	push	r29
 aa0:	ec 01       	movw	r28, r24
	void* ptr;
	do
	{
		ptr = malloc(size);
 aa2:	ce 01       	movw	r24, r28
 aa4:	45 d0       	rcall	.+138    	; 0xb30 <malloc>
	}while(ptr == nullptr);
 aa6:	00 97       	sbiw	r24, 0x00	; 0
 aa8:	e1 f3       	breq	.-8      	; 0xaa2 <_ZN3TWInwEj+0x6>
	
	return ptr;
}
 aaa:	df 91       	pop	r29
 aac:	cf 91       	pop	r28
 aae:	08 95       	ret

00000ab0 <__udivmodqi4>:
 ab0:	99 1b       	sub	r25, r25
 ab2:	79 e0       	ldi	r23, 0x09	; 9
 ab4:	04 c0       	rjmp	.+8      	; 0xabe <__udivmodqi4_ep>

00000ab6 <__udivmodqi4_loop>:
 ab6:	99 1f       	adc	r25, r25
 ab8:	96 17       	cp	r25, r22
 aba:	08 f0       	brcs	.+2      	; 0xabe <__udivmodqi4_ep>
 abc:	96 1b       	sub	r25, r22

00000abe <__udivmodqi4_ep>:
 abe:	88 1f       	adc	r24, r24
 ac0:	7a 95       	dec	r23
 ac2:	c9 f7       	brne	.-14     	; 0xab6 <__udivmodqi4_loop>
 ac4:	80 95       	com	r24
 ac6:	08 95       	ret

00000ac8 <__udivmodsi4>:
 ac8:	a1 e2       	ldi	r26, 0x21	; 33
 aca:	1a 2e       	mov	r1, r26
 acc:	aa 1b       	sub	r26, r26
 ace:	bb 1b       	sub	r27, r27
 ad0:	fd 01       	movw	r30, r26
 ad2:	0d c0       	rjmp	.+26     	; 0xaee <__udivmodsi4_ep>

00000ad4 <__udivmodsi4_loop>:
 ad4:	aa 1f       	adc	r26, r26
 ad6:	bb 1f       	adc	r27, r27
 ad8:	ee 1f       	adc	r30, r30
 ada:	ff 1f       	adc	r31, r31
 adc:	a2 17       	cp	r26, r18
 ade:	b3 07       	cpc	r27, r19
 ae0:	e4 07       	cpc	r30, r20
 ae2:	f5 07       	cpc	r31, r21
 ae4:	20 f0       	brcs	.+8      	; 0xaee <__udivmodsi4_ep>
 ae6:	a2 1b       	sub	r26, r18
 ae8:	b3 0b       	sbc	r27, r19
 aea:	e4 0b       	sbc	r30, r20
 aec:	f5 0b       	sbc	r31, r21

00000aee <__udivmodsi4_ep>:
 aee:	66 1f       	adc	r22, r22
 af0:	77 1f       	adc	r23, r23
 af2:	88 1f       	adc	r24, r24
 af4:	99 1f       	adc	r25, r25
 af6:	1a 94       	dec	r1
 af8:	69 f7       	brne	.-38     	; 0xad4 <__udivmodsi4_loop>
 afa:	60 95       	com	r22
 afc:	70 95       	com	r23
 afe:	80 95       	com	r24
 b00:	90 95       	com	r25
 b02:	9b 01       	movw	r18, r22
 b04:	ac 01       	movw	r20, r24
 b06:	bd 01       	movw	r22, r26
 b08:	cf 01       	movw	r24, r30
 b0a:	08 95       	ret

00000b0c <__umulhisi3>:
 b0c:	a2 9f       	mul	r26, r18
 b0e:	b0 01       	movw	r22, r0
 b10:	b3 9f       	mul	r27, r19
 b12:	c0 01       	movw	r24, r0
 b14:	a3 9f       	mul	r26, r19
 b16:	01 d0       	rcall	.+2      	; 0xb1a <__umulhisi3+0xe>
 b18:	b2 9f       	mul	r27, r18
 b1a:	70 0d       	add	r23, r0
 b1c:	81 1d       	adc	r24, r1
 b1e:	11 24       	eor	r1, r1
 b20:	91 1d       	adc	r25, r1
 b22:	08 95       	ret

00000b24 <__tablejump2__>:
 b24:	ee 0f       	add	r30, r30
 b26:	ff 1f       	adc	r31, r31
 b28:	05 90       	lpm	r0, Z+
 b2a:	f4 91       	lpm	r31, Z
 b2c:	e0 2d       	mov	r30, r0
 b2e:	09 94       	ijmp

00000b30 <malloc>:
 b30:	0f 93       	push	r16
 b32:	1f 93       	push	r17
 b34:	cf 93       	push	r28
 b36:	df 93       	push	r29
 b38:	82 30       	cpi	r24, 0x02	; 2
 b3a:	91 05       	cpc	r25, r1
 b3c:	10 f4       	brcc	.+4      	; 0xb42 <malloc+0x12>
 b3e:	82 e0       	ldi	r24, 0x02	; 2
 b40:	90 e0       	ldi	r25, 0x00	; 0
 b42:	e0 91 98 00 	lds	r30, 0x0098	; 0x800098 <__flp>
 b46:	f0 91 99 00 	lds	r31, 0x0099	; 0x800099 <__flp+0x1>
 b4a:	20 e0       	ldi	r18, 0x00	; 0
 b4c:	30 e0       	ldi	r19, 0x00	; 0
 b4e:	a0 e0       	ldi	r26, 0x00	; 0
 b50:	b0 e0       	ldi	r27, 0x00	; 0
 b52:	30 97       	sbiw	r30, 0x00	; 0
 b54:	19 f1       	breq	.+70     	; 0xb9c <malloc+0x6c>
 b56:	40 81       	ld	r20, Z
 b58:	51 81       	ldd	r21, Z+1	; 0x01
 b5a:	02 81       	ldd	r16, Z+2	; 0x02
 b5c:	13 81       	ldd	r17, Z+3	; 0x03
 b5e:	48 17       	cp	r20, r24
 b60:	59 07       	cpc	r21, r25
 b62:	c8 f0       	brcs	.+50     	; 0xb96 <malloc+0x66>
 b64:	84 17       	cp	r24, r20
 b66:	95 07       	cpc	r25, r21
 b68:	69 f4       	brne	.+26     	; 0xb84 <malloc+0x54>
 b6a:	10 97       	sbiw	r26, 0x00	; 0
 b6c:	31 f0       	breq	.+12     	; 0xb7a <malloc+0x4a>
 b6e:	12 96       	adiw	r26, 0x02	; 2
 b70:	0c 93       	st	X, r16
 b72:	12 97       	sbiw	r26, 0x02	; 2
 b74:	13 96       	adiw	r26, 0x03	; 3
 b76:	1c 93       	st	X, r17
 b78:	27 c0       	rjmp	.+78     	; 0xbc8 <malloc+0x98>
 b7a:	00 93 98 00 	sts	0x0098, r16	; 0x800098 <__flp>
 b7e:	10 93 99 00 	sts	0x0099, r17	; 0x800099 <__flp+0x1>
 b82:	22 c0       	rjmp	.+68     	; 0xbc8 <malloc+0x98>
 b84:	21 15       	cp	r18, r1
 b86:	31 05       	cpc	r19, r1
 b88:	19 f0       	breq	.+6      	; 0xb90 <malloc+0x60>
 b8a:	42 17       	cp	r20, r18
 b8c:	53 07       	cpc	r21, r19
 b8e:	18 f4       	brcc	.+6      	; 0xb96 <malloc+0x66>
 b90:	9a 01       	movw	r18, r20
 b92:	bd 01       	movw	r22, r26
 b94:	ef 01       	movw	r28, r30
 b96:	df 01       	movw	r26, r30
 b98:	f8 01       	movw	r30, r16
 b9a:	db cf       	rjmp	.-74     	; 0xb52 <malloc+0x22>
 b9c:	21 15       	cp	r18, r1
 b9e:	31 05       	cpc	r19, r1
 ba0:	f9 f0       	breq	.+62     	; 0xbe0 <malloc+0xb0>
 ba2:	28 1b       	sub	r18, r24
 ba4:	39 0b       	sbc	r19, r25
 ba6:	24 30       	cpi	r18, 0x04	; 4
 ba8:	31 05       	cpc	r19, r1
 baa:	80 f4       	brcc	.+32     	; 0xbcc <malloc+0x9c>
 bac:	8a 81       	ldd	r24, Y+2	; 0x02
 bae:	9b 81       	ldd	r25, Y+3	; 0x03
 bb0:	61 15       	cp	r22, r1
 bb2:	71 05       	cpc	r23, r1
 bb4:	21 f0       	breq	.+8      	; 0xbbe <malloc+0x8e>
 bb6:	fb 01       	movw	r30, r22
 bb8:	93 83       	std	Z+3, r25	; 0x03
 bba:	82 83       	std	Z+2, r24	; 0x02
 bbc:	04 c0       	rjmp	.+8      	; 0xbc6 <malloc+0x96>
 bbe:	90 93 99 00 	sts	0x0099, r25	; 0x800099 <__flp+0x1>
 bc2:	80 93 98 00 	sts	0x0098, r24	; 0x800098 <__flp>
 bc6:	fe 01       	movw	r30, r28
 bc8:	32 96       	adiw	r30, 0x02	; 2
 bca:	44 c0       	rjmp	.+136    	; 0xc54 <malloc+0x124>
 bcc:	fe 01       	movw	r30, r28
 bce:	e2 0f       	add	r30, r18
 bd0:	f3 1f       	adc	r31, r19
 bd2:	81 93       	st	Z+, r24
 bd4:	91 93       	st	Z+, r25
 bd6:	22 50       	subi	r18, 0x02	; 2
 bd8:	31 09       	sbc	r19, r1
 bda:	39 83       	std	Y+1, r19	; 0x01
 bdc:	28 83       	st	Y, r18
 bde:	3a c0       	rjmp	.+116    	; 0xc54 <malloc+0x124>
 be0:	20 91 96 00 	lds	r18, 0x0096	; 0x800096 <__brkval>
 be4:	30 91 97 00 	lds	r19, 0x0097	; 0x800097 <__brkval+0x1>
 be8:	23 2b       	or	r18, r19
 bea:	41 f4       	brne	.+16     	; 0xbfc <malloc+0xcc>
 bec:	20 91 62 00 	lds	r18, 0x0062	; 0x800062 <__malloc_heap_start>
 bf0:	30 91 63 00 	lds	r19, 0x0063	; 0x800063 <__malloc_heap_start+0x1>
 bf4:	30 93 97 00 	sts	0x0097, r19	; 0x800097 <__brkval+0x1>
 bf8:	20 93 96 00 	sts	0x0096, r18	; 0x800096 <__brkval>
 bfc:	20 91 60 00 	lds	r18, 0x0060	; 0x800060 <__DATA_REGION_ORIGIN__>
 c00:	30 91 61 00 	lds	r19, 0x0061	; 0x800061 <__DATA_REGION_ORIGIN__+0x1>
 c04:	21 15       	cp	r18, r1
 c06:	31 05       	cpc	r19, r1
 c08:	41 f4       	brne	.+16     	; 0xc1a <malloc+0xea>
 c0a:	2d b7       	in	r18, 0x3d	; 61
 c0c:	3e b7       	in	r19, 0x3e	; 62
 c0e:	40 91 64 00 	lds	r20, 0x0064	; 0x800064 <__malloc_margin>
 c12:	50 91 65 00 	lds	r21, 0x0065	; 0x800065 <__malloc_margin+0x1>
 c16:	24 1b       	sub	r18, r20
 c18:	35 0b       	sbc	r19, r21
 c1a:	e0 91 96 00 	lds	r30, 0x0096	; 0x800096 <__brkval>
 c1e:	f0 91 97 00 	lds	r31, 0x0097	; 0x800097 <__brkval+0x1>
 c22:	e2 17       	cp	r30, r18
 c24:	f3 07       	cpc	r31, r19
 c26:	a0 f4       	brcc	.+40     	; 0xc50 <malloc+0x120>
 c28:	2e 1b       	sub	r18, r30
 c2a:	3f 0b       	sbc	r19, r31
 c2c:	28 17       	cp	r18, r24
 c2e:	39 07       	cpc	r19, r25
 c30:	78 f0       	brcs	.+30     	; 0xc50 <malloc+0x120>
 c32:	ac 01       	movw	r20, r24
 c34:	4e 5f       	subi	r20, 0xFE	; 254
 c36:	5f 4f       	sbci	r21, 0xFF	; 255
 c38:	24 17       	cp	r18, r20
 c3a:	35 07       	cpc	r19, r21
 c3c:	48 f0       	brcs	.+18     	; 0xc50 <malloc+0x120>
 c3e:	4e 0f       	add	r20, r30
 c40:	5f 1f       	adc	r21, r31
 c42:	50 93 97 00 	sts	0x0097, r21	; 0x800097 <__brkval+0x1>
 c46:	40 93 96 00 	sts	0x0096, r20	; 0x800096 <__brkval>
 c4a:	81 93       	st	Z+, r24
 c4c:	91 93       	st	Z+, r25
 c4e:	02 c0       	rjmp	.+4      	; 0xc54 <malloc+0x124>
 c50:	e0 e0       	ldi	r30, 0x00	; 0
 c52:	f0 e0       	ldi	r31, 0x00	; 0
 c54:	cf 01       	movw	r24, r30
 c56:	df 91       	pop	r29
 c58:	cf 91       	pop	r28
 c5a:	1f 91       	pop	r17
 c5c:	0f 91       	pop	r16
 c5e:	08 95       	ret

00000c60 <free>:
 c60:	cf 93       	push	r28
 c62:	df 93       	push	r29
 c64:	00 97       	sbiw	r24, 0x00	; 0
 c66:	09 f4       	brne	.+2      	; 0xc6a <free+0xa>
 c68:	81 c0       	rjmp	.+258    	; 0xd6c <free+0x10c>
 c6a:	fc 01       	movw	r30, r24
 c6c:	32 97       	sbiw	r30, 0x02	; 2
 c6e:	13 82       	std	Z+3, r1	; 0x03
 c70:	12 82       	std	Z+2, r1	; 0x02
 c72:	a0 91 98 00 	lds	r26, 0x0098	; 0x800098 <__flp>
 c76:	b0 91 99 00 	lds	r27, 0x0099	; 0x800099 <__flp+0x1>
 c7a:	10 97       	sbiw	r26, 0x00	; 0
 c7c:	81 f4       	brne	.+32     	; 0xc9e <free+0x3e>
 c7e:	20 81       	ld	r18, Z
 c80:	31 81       	ldd	r19, Z+1	; 0x01
 c82:	82 0f       	add	r24, r18
 c84:	93 1f       	adc	r25, r19
 c86:	20 91 96 00 	lds	r18, 0x0096	; 0x800096 <__brkval>
 c8a:	30 91 97 00 	lds	r19, 0x0097	; 0x800097 <__brkval+0x1>
 c8e:	28 17       	cp	r18, r24
 c90:	39 07       	cpc	r19, r25
 c92:	51 f5       	brne	.+84     	; 0xce8 <free+0x88>
 c94:	f0 93 97 00 	sts	0x0097, r31	; 0x800097 <__brkval+0x1>
 c98:	e0 93 96 00 	sts	0x0096, r30	; 0x800096 <__brkval>
 c9c:	67 c0       	rjmp	.+206    	; 0xd6c <free+0x10c>
 c9e:	ed 01       	movw	r28, r26
 ca0:	20 e0       	ldi	r18, 0x00	; 0
 ca2:	30 e0       	ldi	r19, 0x00	; 0
 ca4:	ce 17       	cp	r28, r30
 ca6:	df 07       	cpc	r29, r31
 ca8:	40 f4       	brcc	.+16     	; 0xcba <free+0x5a>
 caa:	4a 81       	ldd	r20, Y+2	; 0x02
 cac:	5b 81       	ldd	r21, Y+3	; 0x03
 cae:	9e 01       	movw	r18, r28
 cb0:	41 15       	cp	r20, r1
 cb2:	51 05       	cpc	r21, r1
 cb4:	f1 f0       	breq	.+60     	; 0xcf2 <free+0x92>
 cb6:	ea 01       	movw	r28, r20
 cb8:	f5 cf       	rjmp	.-22     	; 0xca4 <free+0x44>
 cba:	d3 83       	std	Z+3, r29	; 0x03
 cbc:	c2 83       	std	Z+2, r28	; 0x02
 cbe:	40 81       	ld	r20, Z
 cc0:	51 81       	ldd	r21, Z+1	; 0x01
 cc2:	84 0f       	add	r24, r20
 cc4:	95 1f       	adc	r25, r21
 cc6:	c8 17       	cp	r28, r24
 cc8:	d9 07       	cpc	r29, r25
 cca:	59 f4       	brne	.+22     	; 0xce2 <free+0x82>
 ccc:	88 81       	ld	r24, Y
 cce:	99 81       	ldd	r25, Y+1	; 0x01
 cd0:	84 0f       	add	r24, r20
 cd2:	95 1f       	adc	r25, r21
 cd4:	02 96       	adiw	r24, 0x02	; 2
 cd6:	91 83       	std	Z+1, r25	; 0x01
 cd8:	80 83       	st	Z, r24
 cda:	8a 81       	ldd	r24, Y+2	; 0x02
 cdc:	9b 81       	ldd	r25, Y+3	; 0x03
 cde:	93 83       	std	Z+3, r25	; 0x03
 ce0:	82 83       	std	Z+2, r24	; 0x02
 ce2:	21 15       	cp	r18, r1
 ce4:	31 05       	cpc	r19, r1
 ce6:	29 f4       	brne	.+10     	; 0xcf2 <free+0x92>
 ce8:	f0 93 99 00 	sts	0x0099, r31	; 0x800099 <__flp+0x1>
 cec:	e0 93 98 00 	sts	0x0098, r30	; 0x800098 <__flp>
 cf0:	3d c0       	rjmp	.+122    	; 0xd6c <free+0x10c>
 cf2:	e9 01       	movw	r28, r18
 cf4:	fb 83       	std	Y+3, r31	; 0x03
 cf6:	ea 83       	std	Y+2, r30	; 0x02
 cf8:	49 91       	ld	r20, Y+
 cfa:	59 91       	ld	r21, Y+
 cfc:	c4 0f       	add	r28, r20
 cfe:	d5 1f       	adc	r29, r21
 d00:	ec 17       	cp	r30, r28
 d02:	fd 07       	cpc	r31, r29
 d04:	61 f4       	brne	.+24     	; 0xd1e <free+0xbe>
 d06:	80 81       	ld	r24, Z
 d08:	91 81       	ldd	r25, Z+1	; 0x01
 d0a:	84 0f       	add	r24, r20
 d0c:	95 1f       	adc	r25, r21
 d0e:	02 96       	adiw	r24, 0x02	; 2
 d10:	e9 01       	movw	r28, r18
 d12:	99 83       	std	Y+1, r25	; 0x01
 d14:	88 83       	st	Y, r24
 d16:	82 81       	ldd	r24, Z+2	; 0x02
 d18:	93 81       	ldd	r25, Z+3	; 0x03
 d1a:	9b 83       	std	Y+3, r25	; 0x03
 d1c:	8a 83       	std	Y+2, r24	; 0x02
 d1e:	e0 e0       	ldi	r30, 0x00	; 0
 d20:	f0 e0       	ldi	r31, 0x00	; 0
 d22:	12 96       	adiw	r26, 0x02	; 2
 d24:	8d 91       	ld	r24, X+
 d26:	9c 91       	ld	r25, X
 d28:	13 97       	sbiw	r26, 0x03	; 3
 d2a:	00 97       	sbiw	r24, 0x00	; 0
 d2c:	19 f0       	breq	.+6      	; 0xd34 <free+0xd4>
 d2e:	fd 01       	movw	r30, r26
 d30:	dc 01       	movw	r26, r24
 d32:	f7 cf       	rjmp	.-18     	; 0xd22 <free+0xc2>
 d34:	8d 91       	ld	r24, X+
 d36:	9c 91       	ld	r25, X
 d38:	11 97       	sbiw	r26, 0x01	; 1
 d3a:	9d 01       	movw	r18, r26
 d3c:	2e 5f       	subi	r18, 0xFE	; 254
 d3e:	3f 4f       	sbci	r19, 0xFF	; 255
 d40:	82 0f       	add	r24, r18
 d42:	93 1f       	adc	r25, r19
 d44:	20 91 96 00 	lds	r18, 0x0096	; 0x800096 <__brkval>
 d48:	30 91 97 00 	lds	r19, 0x0097	; 0x800097 <__brkval+0x1>
 d4c:	28 17       	cp	r18, r24
 d4e:	39 07       	cpc	r19, r25
 d50:	69 f4       	brne	.+26     	; 0xd6c <free+0x10c>
 d52:	30 97       	sbiw	r30, 0x00	; 0
 d54:	29 f4       	brne	.+10     	; 0xd60 <free+0x100>
 d56:	10 92 99 00 	sts	0x0099, r1	; 0x800099 <__flp+0x1>
 d5a:	10 92 98 00 	sts	0x0098, r1	; 0x800098 <__flp>
 d5e:	02 c0       	rjmp	.+4      	; 0xd64 <free+0x104>
 d60:	13 82       	std	Z+3, r1	; 0x03
 d62:	12 82       	std	Z+2, r1	; 0x02
 d64:	b0 93 97 00 	sts	0x0097, r27	; 0x800097 <__brkval+0x1>
 d68:	a0 93 96 00 	sts	0x0096, r26	; 0x800096 <__brkval>
 d6c:	df 91       	pop	r29
 d6e:	cf 91       	pop	r28
 d70:	08 95       	ret

00000d72 <memmove>:
 d72:	68 17       	cp	r22, r24
 d74:	79 07       	cpc	r23, r25
 d76:	68 f4       	brcc	.+26     	; 0xd92 <memmove+0x20>
 d78:	fb 01       	movw	r30, r22
 d7a:	dc 01       	movw	r26, r24
 d7c:	e4 0f       	add	r30, r20
 d7e:	f5 1f       	adc	r31, r21
 d80:	a4 0f       	add	r26, r20
 d82:	b5 1f       	adc	r27, r21
 d84:	02 c0       	rjmp	.+4      	; 0xd8a <memmove+0x18>
 d86:	02 90       	ld	r0, -Z
 d88:	0e 92       	st	-X, r0
 d8a:	41 50       	subi	r20, 0x01	; 1
 d8c:	50 40       	sbci	r21, 0x00	; 0
 d8e:	d8 f7       	brcc	.-10     	; 0xd86 <memmove+0x14>
 d90:	08 95       	ret
 d92:	00 c0       	rjmp	.+0      	; 0xd94 <memcpy>

00000d94 <memcpy>:
 d94:	fb 01       	movw	r30, r22
 d96:	dc 01       	movw	r26, r24
 d98:	02 c0       	rjmp	.+4      	; 0xd9e <memcpy+0xa>
 d9a:	01 90       	ld	r0, Z+
 d9c:	0d 92       	st	X+, r0
 d9e:	41 50       	subi	r20, 0x01	; 1
 da0:	50 40       	sbci	r21, 0x00	; 0
 da2:	d8 f7       	brcc	.-10     	; 0xd9a <memcpy+0x6>
 da4:	08 95       	ret

00000da6 <_exit>:
 da6:	f8 94       	cli

00000da8 <__stop_program>:
 da8:	ff cf       	rjmp	.-2      	; 0xda8 <__stop_program>
